###############################################################################
#
# IAR ELF Linker V7.70.2.11706/W32 for ARM                01/May/2017  16:17:02
# Copyright 2007-2016 IAR Systems AB.
#
#    Output file  =  
#        D:\Embedded\Projects\Universal3PHalfBridgeController\GitHub\Universal3PHalfBridgeController\K66_Firmware\IAR_proj\OUT\Debug\Exe\U3HB_MQXLib.out.tmp
#    Map file     =  
#        D:\Embedded\Projects\Universal3PHalfBridgeController\GitHub\Universal3PHalfBridgeController\K66_Firmware\IAR_proj\OUT\Debug\List\U3HB_MQXLib.map
#    Command line =  
#        D:\Embedded\Projects\Universal3PHalfBridgeController\GitHub\Universal3PHalfBridgeController\K66_Firmware\IAR_proj\OUT\Debug\Obj\App_logger.o
#        D:\Embedded\Projects\Universal3PHalfBridgeController\GitHub\Universal3PHalfBridgeController\K66_Firmware\IAR_proj\OUT\Debug\Obj\CAN_IO_exchange.o
#        D:\Embedded\Projects\Universal3PHalfBridgeController\GitHub\Universal3PHalfBridgeController\K66_Firmware\IAR_proj\OUT\Debug\Obj\CRC_utils.o
#        D:\Embedded\Projects\Universal3PHalfBridgeController\GitHub\Universal3PHalfBridgeController\K66_Firmware\IAR_proj\OUT\Debug\Obj\Debug_io.o
#        D:\Embedded\Projects\Universal3PHalfBridgeController\GitHub\Universal3PHalfBridgeController\K66_Firmware\IAR_proj\OUT\Debug\Obj\Filters.o
#        D:\Embedded\Projects\Universal3PHalfBridgeController\GitHub\Universal3PHalfBridgeController\K66_Firmware\IAR_proj\OUT\Debug\Obj\freemaster_appcmd.o
#        D:\Embedded\Projects\Universal3PHalfBridgeController\GitHub\Universal3PHalfBridgeController\K66_Firmware\IAR_proj\OUT\Debug\Obj\freemaster_os.o
#        D:\Embedded\Projects\Universal3PHalfBridgeController\GitHub\Universal3PHalfBridgeController\K66_Firmware\IAR_proj\OUT\Debug\Obj\freemaster_pipes.o
#        D:\Embedded\Projects\Universal3PHalfBridgeController\GitHub\Universal3PHalfBridgeController\K66_Firmware\IAR_proj\OUT\Debug\Obj\freemaster_protocol.o
#        D:\Embedded\Projects\Universal3PHalfBridgeController\GitHub\Universal3PHalfBridgeController\K66_Firmware\IAR_proj\OUT\Debug\Obj\freemaster_rec.o
#        D:\Embedded\Projects\Universal3PHalfBridgeController\GitHub\Universal3PHalfBridgeController\K66_Firmware\IAR_proj\OUT\Debug\Obj\freemaster_scope.o
#        D:\Embedded\Projects\Universal3PHalfBridgeController\GitHub\Universal3PHalfBridgeController\K66_Firmware\IAR_proj\OUT\Debug\Obj\freemaster_serial.o
#        D:\Embedded\Projects\Universal3PHalfBridgeController\GitHub\Universal3PHalfBridgeController\K66_Firmware\IAR_proj\OUT\Debug\Obj\freemaster_sfio.o
#        D:\Embedded\Projects\Universal3PHalfBridgeController\GitHub\Universal3PHalfBridgeController\K66_Firmware\IAR_proj\OUT\Debug\Obj\freemaster_tsa.o
#        D:\Embedded\Projects\Universal3PHalfBridgeController\GitHub\Universal3PHalfBridgeController\K66_Firmware\IAR_proj\OUT\Debug\Obj\FreeMaster_vars.o
#        D:\Embedded\Projects\Universal3PHalfBridgeController\GitHub\Universal3PHalfBridgeController\K66_Firmware\IAR_proj\OUT\Debug\Obj\Init_Pins.o
#        D:\Embedded\Projects\Universal3PHalfBridgeController\GitHub\Universal3PHalfBridgeController\K66_Firmware\IAR_proj\OUT\Debug\Obj\Inputs_processing.o
#        D:\Embedded\Projects\Universal3PHalfBridgeController\GitHub\Universal3PHalfBridgeController\K66_Firmware\IAR_proj\OUT\Debug\Obj\K66BLEZ1_ADC.o
#        D:\Embedded\Projects\Universal3PHalfBridgeController\GitHub\Universal3PHalfBridgeController\K66_Firmware\IAR_proj\OUT\Debug\Obj\K66BLEZ1_CAN.o
#        D:\Embedded\Projects\Universal3PHalfBridgeController\GitHub\Universal3PHalfBridgeController\K66_Firmware\IAR_proj\OUT\Debug\Obj\K66BLEZ1_DAC.o
#        D:\Embedded\Projects\Universal3PHalfBridgeController\GitHub\Universal3PHalfBridgeController\K66_Firmware\IAR_proj\OUT\Debug\Obj\K66BLEZ1_DMA.o
#        D:\Embedded\Projects\Universal3PHalfBridgeController\GitHub\Universal3PHalfBridgeController\K66_Firmware\IAR_proj\OUT\Debug\Obj\K66BLEZ1_FTM.o
#        D:\Embedded\Projects\Universal3PHalfBridgeController\GitHub\Universal3PHalfBridgeController\K66_Firmware\IAR_proj\OUT\Debug\Obj\K66BLEZ1_INIT_SYS.o
#        D:\Embedded\Projects\Universal3PHalfBridgeController\GitHub\Universal3PHalfBridgeController\K66_Firmware\IAR_proj\OUT\Debug\Obj\K66BLEZ1_MKW40_Channel.o
#        D:\Embedded\Projects\Universal3PHalfBridgeController\GitHub\Universal3PHalfBridgeController\K66_Firmware\IAR_proj\OUT\Debug\Obj\K66BLEZ1_PIT.o
#        D:\Embedded\Projects\Universal3PHalfBridgeController\GitHub\Universal3PHalfBridgeController\K66_Firmware\IAR_proj\OUT\Debug\Obj\K66BLEZ1_SPI.o
#        D:\Embedded\Projects\Universal3PHalfBridgeController\GitHub\Universal3PHalfBridgeController\K66_Firmware\IAR_proj\OUT\Debug\Obj\K66BLEZ1_VBAT_RAM.o
#        D:\Embedded\Projects\Universal3PHalfBridgeController\GitHub\Universal3PHalfBridgeController\K66_Firmware\IAR_proj\OUT\Debug\Obj\LED_control.o
#        D:\Embedded\Projects\Universal3PHalfBridgeController\GitHub\Universal3PHalfBridgeController\K66_Firmware\IAR_proj\OUT\Debug\Obj\Main.o
#        D:\Embedded\Projects\Universal3PHalfBridgeController\GitHub\Universal3PHalfBridgeController\K66_Firmware\IAR_proj\OUT\Debug\Obj\MFS_man.o
#        D:\Embedded\Projects\Universal3PHalfBridgeController\GitHub\Universal3PHalfBridgeController\K66_Firmware\IAR_proj\OUT\Debug\Obj\MFS_Shell.o
#        D:\Embedded\Projects\Universal3PHalfBridgeController\GitHub\Universal3PHalfBridgeController\K66_Firmware\IAR_proj\OUT\Debug\Obj\MFS_test.o
#        D:\Embedded\Projects\Universal3PHalfBridgeController\GitHub\Universal3PHalfBridgeController\K66_Firmware\IAR_proj\OUT\Debug\Obj\MKW40_Channel.o
#        D:\Embedded\Projects\Universal3PHalfBridgeController\GitHub\Universal3PHalfBridgeController\K66_Firmware\IAR_proj\OUT\Debug\Obj\Monitor_serial_drv.o
#        D:\Embedded\Projects\Universal3PHalfBridgeController\GitHub\Universal3PHalfBridgeController\K66_Firmware\IAR_proj\OUT\Debug\Obj\Monitor_usb_drv.o
#        D:\Embedded\Projects\Universal3PHalfBridgeController\GitHub\Universal3PHalfBridgeController\K66_Firmware\IAR_proj\OUT\Debug\Obj\MonitorVT100.o
#        D:\Embedded\Projects\Universal3PHalfBridgeController\GitHub\Universal3PHalfBridgeController\K66_Firmware\MQX_LIBRARY_O3.a
#        D:\Embedded\Projects\Universal3PHalfBridgeController\GitHub\Universal3PHalfBridgeController\K66_Firmware\IAR_proj\OUT\Debug\Obj\Parameters.o
#        D:\Embedded\Projects\Universal3PHalfBridgeController\GitHub\Universal3PHalfBridgeController\K66_Firmware\IAR_proj\OUT\Debug\Obj\PIDController.o
#        D:\Embedded\Projects\Universal3PHalfBridgeController\GitHub\Universal3PHalfBridgeController\K66_Firmware\IAR_proj\OUT\Debug\Obj\QuadDecoder.o
#        D:\Embedded\Projects\Universal3PHalfBridgeController\GitHub\Universal3PHalfBridgeController\K66_Firmware\IAR_proj\OUT\Debug\Obj\RTOS_utils.o
#        D:\Embedded\Projects\Universal3PHalfBridgeController\GitHub\Universal3PHalfBridgeController\K66_Firmware\IAR_proj\OUT\Debug\Obj\SEGGER_RTT.o
#        D:\Embedded\Projects\Universal3PHalfBridgeController\GitHub\Universal3PHalfBridgeController\K66_Firmware\IAR_proj\OUT\Debug\Obj\SEGGER_RTT_printf.o
#        D:\Embedded\Projects\Universal3PHalfBridgeController\GitHub\Universal3PHalfBridgeController\K66_Firmware\IAR_proj\OUT\Debug\Obj\Supervisor_task.o
#        D:\Embedded\Projects\Universal3PHalfBridgeController\GitHub\Universal3PHalfBridgeController\K66_Firmware\IAR_proj\OUT\Debug\Obj\Task_FreeMaster.o
#        D:\Embedded\Projects\Universal3PHalfBridgeController\GitHub\Universal3PHalfBridgeController\K66_Firmware\IAR_proj\OUT\Debug\Obj\TimeMan.o
#        D:\Embedded\Projects\Universal3PHalfBridgeController\GitHub\Universal3PHalfBridgeController\K66_Firmware\IAR_proj\OUT\Debug\Obj\U3HB01_BLDC.o
#        D:\Embedded\Projects\Universal3PHalfBridgeController\GitHub\Universal3PHalfBridgeController\K66_Firmware\IAR_proj\OUT\Debug\Obj\U3HB01_CAN.o
#        D:\Embedded\Projects\Universal3PHalfBridgeController\GitHub\Universal3PHalfBridgeController\K66_Firmware\IAR_proj\OUT\Debug\Obj\U3HB01_DRV8305.o
#        D:\Embedded\Projects\Universal3PHalfBridgeController\GitHub\Universal3PHalfBridgeController\K66_Firmware\IAR_proj\OUT\Debug\Obj\U3HB01_ExtEncoder.o
#        D:\Embedded\Projects\Universal3PHalfBridgeController\GitHub\Universal3PHalfBridgeController\K66_Firmware\IAR_proj\OUT\Debug\Obj\U3HB01_FreemasterCmdMan.o
#        D:\Embedded\Projects\Universal3PHalfBridgeController\GitHub\Universal3PHalfBridgeController\K66_Firmware\IAR_proj\OUT\Debug\Obj\U3HB01_Hall_BLDC.o
#        D:\Embedded\Projects\Universal3PHalfBridgeController\GitHub\Universal3PHalfBridgeController\K66_Firmware\IAR_proj\OUT\Debug\Obj\U3HB01_Hall_sensor.o
#        D:\Embedded\Projects\Universal3PHalfBridgeController\GitHub\Universal3PHalfBridgeController\K66_Firmware\IAR_proj\OUT\Debug\Obj\U3HB01_main.o
#        D:\Embedded\Projects\Universal3PHalfBridgeController\GitHub\Universal3PHalfBridgeController\K66_Firmware\IAR_proj\OUT\Debug\Obj\U3HB01_monitor.o
#        D:\Embedded\Projects\Universal3PHalfBridgeController\GitHub\Universal3PHalfBridgeController\K66_Firmware\IAR_proj\OUT\Debug\Obj\U3HB01_Params.o
#        D:\Embedded\Projects\Universal3PHalfBridgeController\GitHub\Universal3PHalfBridgeController\K66_Firmware\IAR_proj\OUT\Debug\Obj\U3HB01_PIDcontrol.o
#        D:\Embedded\Projects\Universal3PHalfBridgeController\GitHub\Universal3PHalfBridgeController\K66_Firmware\IAR_proj\OUT\Debug\Obj\U3HB01_Pins.o
#        D:\Embedded\Projects\Universal3PHalfBridgeController\GitHub\Universal3PHalfBridgeController\K66_Firmware\IAR_proj\OUT\Debug\Obj\U3HB01_RotationControl.o
#        D:\Embedded\Projects\Universal3PHalfBridgeController\GitHub\Universal3PHalfBridgeController\K66_Firmware\IAR_proj\OUT\Debug\Obj\U3HB01_sensless_BLDC.o
#        D:\Embedded\Projects\Universal3PHalfBridgeController\GitHub\Universal3PHalfBridgeController\K66_Firmware\IAR_proj\OUT\Debug\Obj\U3HB01_SolenoidControl.o
#        D:\Embedded\Projects\Universal3PHalfBridgeController\GitHub\Universal3PHalfBridgeController\K66_Firmware\IAR_proj\OUT\Debug\Obj\U3HB01_SPISysBus.o
#        D:\Embedded\Projects\Universal3PHalfBridgeController\GitHub\Universal3PHalfBridgeController\K66_Firmware\IAR_proj\OUT\Debug\Obj\U3HB01_WS2812B.o
#        D:\Embedded\Projects\Universal3PHalfBridgeController\GitHub\Universal3PHalfBridgeController\K66_Firmware\IAR_proj\OUT\Debug\Obj\USB_composite_dev.o
#        D:\Embedded\Projects\Universal3PHalfBridgeController\GitHub\Universal3PHalfBridgeController\K66_Firmware\IAR_proj\OUT\Debug\Obj\USB_debug.o
#        D:\Embedded\Projects\Universal3PHalfBridgeController\GitHub\Universal3PHalfBridgeController\K66_Firmware\IAR_proj\OUT\Debug\Obj\usb_device_descriptor.o
#        D:\Embedded\Projects\Universal3PHalfBridgeController\GitHub\Universal3PHalfBridgeController\K66_Firmware\IAR_proj\OUT\Debug\Obj\USB_virtual_com1.o
#        D:\Embedded\Projects\Universal3PHalfBridgeController\GitHub\Universal3PHalfBridgeController\K66_Firmware\IAR_proj\OUT\Debug\Obj\USB_virtual_com2.o
#        D:\Embedded\Projects\Universal3PHalfBridgeController\GitHub\Universal3PHalfBridgeController\K66_Firmware\IAR_proj\OUT\Debug\Obj\WatchDogCtrl.o
#        --redirect _Printf=_PrintfFull --redirect _Scanf=_ScanfFull -o
#        D:\Embedded\Projects\Universal3PHalfBridgeController\GitHub\Universal3PHalfBridgeController\K66_Firmware\IAR_proj\OUT\Debug\Exe\U3HB_MQXLib.out.tmp
#        --keep __checksum --map
#        D:\Embedded\Projects\Universal3PHalfBridgeController\GitHub\Universal3PHalfBridgeController\K66_Firmware\IAR_proj\OUT\Debug\List\U3HB_MQXLib.map
#        --config
#        D:\Embedded\Projects\Universal3PHalfBridgeController\GitHub\Universal3PHalfBridgeController\K66_Firmware\IAR_proj\INT_FLASH_MK66FX1M0LVQ18.icf
#        --redirect __iar_dlmalloc=malloc --redirect __iar_dlcalloc=calloc
#        --redirect __iar_dlfree=free --entry __iar_program_start
#        --place_holder __checksum,4,.checksum,4 --define_symbol
#        __checksum_begin=0x8000 --define_symbol __checksum_end=0xfffcf
#        "C:\Program Files (x86)\IAR Systems\Embedded Workbench
#        7.5\arm\CMSIS\Lib\IAR\iar_cortexM4lf_math.a" --vfe
#
###############################################################################

*******************************************************************************
*** RUNTIME MODEL ATTRIBUTES
***

CppFlavor                     = *
__SystemLibrary               = DLib
__dlib_dynamic_initialization = normal
__dlib_jmp_buf_num_elements   = 16


*******************************************************************************
*** PLACEMENT SUMMARY
***

"A0":  place at 0x00000000 { ro section .intvec, block CFMPROTROM };
"P1":  place in [from 0x00000000 to 0x000fffff] {
          first block TEXTSECTION, ro, last block FLASHX_POOL };
"A1":  place at 0x1fff0000 { rw section .vectors_ram };
"A2":  place at 0x000fffd0 { block CHECKSUM };
"P2":  place in [from 0x1fff0000 to 0x2002fff0] {
          block USER_MEMORY, last block KERNEL_DATA };
initialize by copy { rw };
 { section .cfmconfig };
 { section .flashx };

  Section                 Kind        Address     Size  Object
  -------                 ----        -------     ----  ------
"A0":                                            0x414
  .intvec                 const    0x00000000    0x400  vectors.o [3]
  CFMPROTROM                       0x00000400     0x14  <Block>
    .cfmconfig            const    0x00000400     0x10  vectors.o [3]
    .cfmconfig            const    0x00000410      0x0  vectors.o [3]
    CFMPROTROM            const    0x00000410      0x4  <Block tail>
                                 - 0x00000414    0x414

"P1":                                          0x30be1
  TEXTSECTION                      0x00000420  0x2bb80  <Block>
    .text                 ro code  0x00000420     0x16  Sdelay.o [3]
    .text                 ro code  0x00000440     0x2e  support.o [3]
    .text                 ro code  0x00000470     0x4c  boot.o [3]
    .text                 ro code  0x000004bc     0x1c  comp.o [3]
    .text                 ro code  0x000004d8      0x4  init_hw.o [3]
    .text                 ro code  0x000004dc    0xf48  lwmem.o [3]
    .text                 ro code  0x00001424      0xc  cstartup_M.o [6]
    .text                 ro code  0x00001430    0x208  K66BLEZ1_INIT_SYS.o [1]
    .text                 ro code  0x00001638    0x1e4  klog.o [3]
    .text                 ro code  0x0000181c    0x2f8  int.o [3]
    .text                 ro code  0x00001b14   0x1478  task.o [3]
    .text                 ro code  0x00002f8c      0x6  ABImemclr.o [6]
    .text                 ro code  0x00002f92      0x2  vectors.o [3]
    .text                 ro code  0x00002f94     0x22  fpinit_M.o [5]
    .text                 ro code  0x00002fb8     0x1a  cmain.o [6]
    .text                 ro code  0x00002fd4     0xec  Init_Pins.o [1]
    .text                 ro code  0x000030c0    0x374  K66BLEZ1_DMA.o [1]
    .text                 ro code  0x00003434    0x130  lwlog.o [3]
    .text                 ro code  0x00003564    0x690  lwsem.o [3]
    .text                 ro code  0x00003bf4     0x2c  strncmp.o [4]
    .text                 ro code  0x00003c20      0x6  stack_st.o [3]
    .text                 ro code  0x00003c26      0x2  stack_de.o [3]
    .text                 ro code  0x00003c28     0x58  stack_bu.o [3]
    .text                 ro code  0x00003c80     0x66  ABImemset.o [6]
    .text                 ro code  0x00003ce8     0x28  data_init.o [6]
    .text                 ro code  0x00003d10     0x14  mqx_main.o [3]
    .text                 ro code  0x00003d24     0x76  ABImemcpy_unaligned.o [6]
    .text                 ro code  0x00003d9c    0xde0  time.o [3]
    .text                 ro code  0x00004b7c     0x44  psp_tiad.o [3]
    .text                 ro code  0x00004bc0     0x80  psp_tkti.o [3]
    .text                 ro code  0x00004c40    0x590  mqx.o [3]
    .text                 ro code  0x000051d0    0x2f8  sched.o [3]
    .text                 ro code  0x000054c8     0x64  psp_mstiq.o [3]
    .text                 ro code  0x0000552c     0x3c  psp_tisu.o [3]
    .text                 ro code  0x00005568     0x9c  psp_tims.o [3]
    .text                 ro code  0x00005604     0x9c  psp_tius.o [3]
    .text                 ro code  0x000056a0     0x30  psp_tinm.o [3]
    .text                 ro code  0x000056d0     0x26  psp_tiol.o [3]
    .text                 ro code  0x000056f8    0x132  I64DivMod.o [6]
    .text                 ro code  0x0000582c     0x2c  setjmp.o [5]
    .text                 ro code  0x00005858     0x20  int_vtab.o [3]
    .text                 ro code  0x00005878    0x158  sc_irdyq.o [3]
    .text                 ro code  0x000059d0    0x198  init_bsp.o [3]
    .text                 ro code  0x00005b68     0x8e  psp_mat1.o [3]
    .text                 ro code  0x00005bf8     0x34  psp_mat3.o [3]
    .text                 ro code  0x00005c2c     0xe2  psp_mat2.o [3]
    .text                 ro code  0x00005d10     0x1c  psp_seti.o [3]
    .text                 ro code  0x00005d2c     0x58  psp_msti.o [3]
    .text                 ro code  0x00005d84      0x2  I64DivZer.o [6]
    .text                 ro code  0x00005d88     0x3a  ABImemset48.o [6]
    .text                 ro code  0x00005dc2     0x12  psp_iinit.o [3]
    .text                 ro code  0x00005dd4    0x116  hwtimer.o [3]
    .text                 ro code  0x00005eec    0x1f4  bsp_cm.o [3]
    .text                 ro code  0x000060e0     0x14  kinetis_mpu.o [3]
    .text                 ro code  0x000060f4     0x34  io_init.o [3]
    .text                 ro code  0x00006128    0x108  init_gpio.o [3]
    .text                 ro code  0x00006230     0x88  krtc.o [3]
    .text                 ro code  0x000062b8    0x1d8  serl_int_kuart.o [3]
    .text                 ro code  0x00006490   0x143c  esdhc.o [3]
    .text                 ro code  0x000078cc     0x58  io_sinit.o [3]
    .text                 ro code  0x00007924     0x2c  int_inst.o [3]
    .text                 ro code  0x00007950    0x784  serl_int.o [3]
    .text                 ro code  0x000080d4    0x51c  serl_pol_kuart.o [3]
    .text                 ro code  0x000085f0     0xb4  nvic.o [3]
    .text                 ro code  0x000086a4    0x7a8  lwevent.o [3]
    .text                 ro code  0x00008e4c     0x1a  esdhc_mk65.o [3]
    .text                 ro code  0x00008e68    0x248  io_instx.o [3]
    .text                 ro code  0x000090b0     0x98  io_fopen.o [3]
    .text                 ro code  0x00009148     0x24  io_inst.o [3]
    .text                 ro code  0x0000916c    0x588  taskq.o [3]
    .text                 ro code  0x000096f4     0x3c  serl_mk65.o [3]
    .text                 ro code  0x00009730    0x200  xdtento.o [5]
    .text                 ro code  0x00009930     0x44  xdnorm.o [5]
    .text                 ro code  0x00009974    0x1a2  DblMul.o [5]
    .text                 ro code  0x00009b18    0x114  xdscale.o [5]
    .text                 ro code  0x00009c2c     0x20  DblCmpEq.o [5]
    .text                 ro code  0x00009c4c     0x56  xdunscal.o [5]
    .text                 ro code  0x00009ca4    0x256  DblDiv.o [5]
    .text                 ro code  0x00009efc      0xc  errno.o [4]
    .text                 ro code  0x00009f08      0x2  xtls.o [4]
    .text                 ro code  0x00009f0c    0x664  App_logger.o [1]
    .text                 ro code  0x0000a570    0x608  lwmsgq.o [3]
    .text                 ro code  0x0000ab78     0x6c  strncpy_unaligned.o [6]
    .text                 ro code  0x0000abe4     0x5a  io_spr.o [3]
    .text                 ro code  0x0000ac40     0x24  io_vpr.o [3]
    .text                 ro code  0x0000ac64    0xed4  MonitorVT100.o [1]
    .text                 ro code  0x0000bb38   0x115c  Parameters.o [1]
    .text                 ro code  0x0000cc94     0x22  io_write.o [3]
    .text                 ro code  0x0000ccb6     0x34  io_fclos.o [3]
    .text                 ro code  0x0000ccec   0x1214  io_dopr.o [3]
    .text                 ro code  0x0000df00    0x24c  U3HB01_main.o [1]
    .text                 ro code  0x0000e14c     0x3c  isxxx.o [4]
    .text                 ro code  0x0000e188     0x18  toupper.o [4]
    .text                 ro code  0x0000e1a0     0x42  strcmp_unaligned.o [6]
    .text                 ro code  0x0000e1e4     0x36  strlen.o [6]
    .text                 ro code  0x0000e21a     0x12  io_sscan.o [3]
    .text                 ro code  0x0000e22c      0xa  isdigit.o [4]
    .text                 ro code  0x0000e238    0xce0  MFS_test.o [1]
    .text                 ro code  0x0000ef18     0x3c  K66BLEZ1_VBAT_RAM.o [1]
    .text                 ro code  0x0000ef54     0xe0  rand.o [4]
    .text                 ro code  0x0000f034    0x1d4  LED_control.o [1]
    .text                 ro code  0x0000f208     0xf0  RTOS_utils.o [1]
    .text                 ro code  0x0000f2f8     0x30  isgraph.o [4]
    .text                 ro code  0x0000f328      0x6  strtol.o [4]
    .text                 ro code  0x0000f32e      0xe  strtod.o [5]
    .text                 ro code  0x0000f33c     0x90  DblToFlt.o [5]
    .text                 ro code  0x0000f3cc     0x4e  FltToDbl.o [5]
    .text                 ro code  0x0000f41a     0x3a  io_fscan.o [3]
    .text                 ro code  0x0000f454     0x12  io_feof.o [3]
    .text                 ro code  0x0000f468     0x16  strchr.o [6]
    .text                 ro code  0x0000f480   0x10f8  io_fp.o [3]
    .text                 ro code  0x00010578     0x30  I32ToDbl.o [5]
    .text                 ro code  0x000105a8     0xe8  DblAdd.o [5]
    .text                 ro code  0x00010690    0x180  DblSub.o [5]
    .text                 ro code  0x00010810     0x12  log.o [5]
    .text                 ro code  0x00010822     0xca  Filters.o [1]
    .text                 ro code  0x000108ec    0x1e8  U3HB01_SPISysBus.o [1]
    .text                 ro code  0x00010ad4    0x180  U3HB01_SolenoidControl.o [1]
    .text                 ro code  0x00010c54    0x2e0  U3HB01_RotationControl.o [1]
    .text                 ro code  0x00010f34     0x18  setlocale.o [4]
    .text                 ro code  0x00010f4c     0x16  xlocale_c.o [4]
    .text                 ro code  0x00010f62     0x24  xlocale_c.o [4]
    .text                 ro code  0x00010f86     0x14  xlocale_c.o [4]
    .text                 ro code  0x00010f9c    0x6f4  io_scanl.o [3]
    .text                 ro code  0x00011690     0x44  strcpy_unaligned.o [6]
    .text                 ro code  0x000116d4     0x20  srand.o [4]
    .text                 ro code  0x000116f4     0x5a  io_read.o [3]
    .text                 ro code  0x00011750    0x460  io_util.o [3]
    .text                 ro code  0x00011bb0     0x38  io_ioctl.o [3]
    .text                 ro code  0x00011be8     0x40  CRC_utils.o [1]
    .text                 ro code  0x00011c28     0x70  int_kisr.o [3]
    .text                 ro code  0x00011c98     0x88  xstol.o [4]
    .text                 ro code  0x00011d20    0x176  xstod.o [5]
    .text                 ro code  0x00011e96     0x96  io_fgetl.o [3]
    .text                 ro code  0x00011f2c     0xc0  modf.o [5]
    .text                 ro code  0x00011fec     0x4c  DblToI32.o [5]
    .text                 ro code  0x00012038     0x2e  DblCmpGe.o [5]
    .text                 ro code  0x00012068     0x2e  DblCmpLe.o [5]
    .text                 ro code  0x00012098    0x2e8  xlog.o [5]
    .text                 ro code  0x00012380    0x398  K66BLEZ1_SPI.o [1]
    .text                 ro code  0x00012718    0x2d0  K66BLEZ1_FTM.o [1]
    .text                 ro code  0x000129e8    0x434  U3HB01_Hall_BLDC.o [1]
    .text                 ro code  0x00012e1c    0x468  U3HB01_DRV8305.o [1]
    .text                 ro code  0x00013284     0xa8  U3HB01_BLDC.o [1]
    .text                 ro code  0x0001332c    0x490  K66BLEZ1_ADC.o [1]
    .text                 ro code  0x000137bc     0x88  U3HB01_FreemasterCmdMan.o [1]
    .text                 ro code  0x00013844    0x13c  U3HB01_ExtEncoder.o [1]
    .text                 ro code  0x00013980    0x308  U3HB01_Hall_sensor.o [1]
    .text                 ro code  0x00013c88    0x194  xstoul.o [4]
    .text                 ro code  0x00013e1c    0x122  xstopfx.o [4]
    .text                 ro code  0x00013f40    0x1b8  xstoflt.o [4]
    .text                 ro code  0x000140f8    0x218  xstoxflt.o [4]
    .text                 ro code  0x00014310     0x40  io_fgetc.o [3]
    .text                 ro code  0x00014350     0x26  io_fung.o [3]
    .text                 ro code  0x00014378     0x2c  U3HB01_Pins.o [1]
    .text                 ro code  0x000143a4      0x8  abs.o [4]
    .text                 ro code  0x000143ac    0x560  freemaster_rec.o [1]
    .text                 ro code  0x0001490c    0x1d0  freemaster_appcmd.o [1]
    .text                 ro code  0x00014adc     0xe0  Task_FreeMaster.o [1]
    .text                 ro code  0x00014bbc     0x14  tolower.o [4]
    .text                 ro code  0x00014bd0     0x58  memchr.o [6]
    .text                 ro code  0x00014c28     0x6c  localeconv.o [4]
    .text                 ro code  0x00014c94    0x1ec  freemaster_tsa.o [1]
    .text                 ro code  0x00014e80     0x84  freemaster_os.o [1]
    .text                 ro code  0x00014f04     0x14  FreeMaster_vars.o [1]
    .text                 ro code  0x00014f18    0x29e  freemaster_protocol.o [1]
    .text                 ro code  0x000151b8    0x2f4  freemaster_serial.o [1]
    .text                 ro code  0x000154ac      0xc  xlocale_c.o [4]
    .text                 ro code  0x000154b8     0xd8  freemaster_scope.o [1]
    .text                 ro code  0x00015590     0x7e  K66BLEZ1_CAN.o [1]
    .text                 ro code  0x00015610    0x150  msgq.o [3]
    .text                 ro code  0x00015760    0x1c0  msgpool.o [3]
    .text                 ro code  0x00015920    0x460  msg.o [3]
    .text                 ro code  0x00015d80    0x114  K66BLEZ1_MKW40_Channel.o [1]
    .text                 ro code  0x00015e94     0x94  Main.o [1]
    .text                 ro code  0x00015f28    0x1c0  Supervisor_task.o [1]
    .text                 ro code  0x000160e8    0x20c  MFS_man.o [1]
    .text                 ro code  0x000162f4     0x60  WatchDogCtrl.o [1]
    .text                 ro code  0x00016354    0x144  USB_composite_dev.o [1]
    .text                 ro code  0x00016498    0x14c  Monitor_usb_drv.o [1]
    .text                 ro code  0x000165e4    0x7d0  U3HB01_WS2812B.o [1]
    .text                 ro code  0x00016db4    0x318  sdcard.o [3]
    .text                 ro code  0x000170cc    0xab2  part_mgr.o [3]
    .text                 ro code  0x00017b80    0x798  mfs_misc.o [3]
    .text                 ro code  0x00018318    0x288  mfs_fio.o [3]
    .text                 ro code  0x000185a0      0xc  io_ferr.o [3]
    .text                 ro code  0x000185ac    0x110  adapter_mqx.o [3]
    .text                 ro code  0x000186bc    0x544  USB_virtual_com1.o [1]
    .text                 ro code  0x00018c00    0x544  USB_virtual_com2.o [1]
    .text                 ro code  0x00019144    0x30e  usb_composite.o [3]
    .text                 ro code  0x00019452     0x20  USB_debug.o [1]
    .text                 ro code  0x00019472     0x80  mfs_valdev.o [3]
    .text                 ro code  0x000194f2     0xd8  io_fseek.o [3]
    .text                 ro code  0x000195ca    0x43c  mfs_search.o [3]
    .text                 ro code  0x00019a08    0x584  mfs_cache.o [3]
    .text                 ro code  0x00019f8c    0x326  mfs_open.o [3]
    .text                 ro code  0x0001a2b4    0x224  mfs_read.o [3]
    .text                 ro code  0x0001a4d8     0x5c  mfs_flush.o [3]
    .text                 ro code  0x0001a534    0x31e  mfs_write.o [3]
    .text                 ro code  0x0001a852    0x384  mfs_ioctl.o [3]
    .text                 ro code  0x0001abd8    0x8dc  mutex.o [3]
    .text                 ro code  0x0001b4b4    0x444  usb_cdc.o [3]
    .text                 ro code  0x0001b8f8    0x298  usb_device_descriptor.o [1]
    .text                 ro code  0x0001bb90    0x5b0  usb_dev.o [3]
    .text                 ro code  0x0001c140     0x82  usb_class.o [3]
    .text                 ro code  0x0001c1c4    0x26c  usb_hid.o [3]
    .text                 ro code  0x0001c430    0x838  usb_audio.o [3]
    .text                 ro code  0x0001cc68    0xb88  usb_msc.o [3]
    .text                 ro code  0x0001d7f0    0x45c  usb_phdc.o [3]
    .text                 ro code  0x0001dc4c    0x4bc  mfs_parse.o [3]
    .text                 ro code  0x0001e108     0x1a  strnlen.o [3]
    .text                 ro code  0x0001e124    0xf64  mfs_lfn.o [3]
    .text                 ro code  0x0001f088     0x62  memcmp_unaligned.o [6]
    .text                 ro code  0x0001f0ec    0xcfa  mfs_dir_entry.o [3]
    .text                 ro code  0x0001fde8    0x1ea  mfs_rw.o [3]
    .text                 ro code  0x0001ffd4    0x696  mfs_dir_chain.o [3]
    .text                 ro code  0x0002066a     0xf2  mfs_handle.o [3]
    .text                 ro code  0x0002075c    0x368  mfs_cluster.o [3]
    .text                 ro code  0x00020ac4    0x1ac  mfs_chain.o [3]
    .text                 ro code  0x00020c70     0xbc  queue.o [3]
    .text                 ro code  0x00020d2c    0x472  mfs_mount.o [3]
    .text                 ro code  0x000211a0    0x48a  mfs_directory.o [3]
    .text                 ro code  0x0002162c    0x422  mfs_find.o [3]
    .text                 ro code  0x00021a4e     0xec  mfs_attribute.o [3]
    .text                 ro code  0x00021b3a     0x66  mfs_time.o [3]
    .text                 ro code  0x00021ba0     0xce  mfs_delete.o [3]
    .text                 ro code  0x00021c70    0x278  mfs_rename.o [3]
    .text                 ro code  0x00021ee8    0x7a8  mfs_format.o [3]
    .text                 ro code  0x00022690    0x19c  usb_cdc_pstn.o [3]
    .text                 ro code  0x0002282c      0x6  ABImemclr4.o [6]
    .text                 ro code  0x00022834    0x3ae  usb_framework.o [3]
    .text                 ro code  0x00022be4    0x1a0  usb_dev_bsp.o [3]
    .text                 ro code  0x00022d84    0x838  usb_msc_scsi.o [3]
    .text                 ro code  0x000235bc    0x2e2  mfs_unicode.o [3]
    .text                 ro code  0x000238a0    0x34c  mfs_fat.o [3]
    .text                 ro code  0x00023bec     0x22  I64Shl.o [6]
    .text                 ro code  0x00023c10     0x44  usb_dev_bsp.o [3]
    .text                 ro code  0x00023c54     0x24  MFS_Shell.o [1]
    .text                 ro code  0x00023c78     0x2c  io_pntf.o [3]
    .text                 ro code  0x00023ca4    0x2c0  shell.o [3]
    .text                 ro code  0x00023f64     0x40  io_ghand.o [3]
    .text                 ro code  0x00023fa4    0x2ec  sh_util.o [3]
    .text                 ro code  0x00024290     0x3e  io_fflsh.o [3]
    .text                 ro code  0x000242ce     0x28  io_fgets.o [3]
    .text                 ro code  0x000242f8     0x28  MKW40_Channel.o [1]
    .text                 ro code  0x00024320    0x190  U3HB01_monitor.o [1]
    .text                 ro code  0x000244b0    0x204  sh_cd.o [3]
    .text                 ro code  0x000246b4     0x98  sh_cmdlist.o [3]
    .text                 ro code  0x0002474c    0x31c  sh_copy.o [3]
    .text                 ro code  0x00024a68     0x3a  io_fputc.o [3]
    .text                 ro code  0x00024aa4    0x228  sh_create.o [3]
    .text                 ro code  0x00024ccc    0x1d4  sh_del.o [3]
    .text                 ro code  0x00024ea0    0x1d4  sh_df.o [3]
    .text                 ro code  0x00025074    0x934  sh_di.o [3]
    .text                 ro code  0x000259a8    0x258  sh_dir.o [3]
    .text                 ro code  0x00025c00    0x338  dir_read.o [3]
    .text                 ro code  0x00025f38    0x2d0  sh_disect.o [3]
    .text                 ro code  0x00026208     0x68  sh_exit.o [3]
    .text                 ro code  0x00026270    0x2f8  sh_format.o [3]
    .text                 ro code  0x00026568    0x178  sh_help.o [3]
    .text                 ro code  0x000266e0    0x1dc  sh_mkdir.o [3]
    .text                 ro code  0x000268bc     0xe8  sh_pwd.o [3]
    .text                 ro code  0x000269a4    0x418  sh_read.o [3]
    .text                 ro code  0x00026dbc   0x2a00  sh_readtest.o [3]
    .text                 ro code  0x000297bc    0x28c  sh_rename.o [3]
    .text                 ro code  0x00029a48    0x208  sh_rmdir.o [3]
    .text                 ro code  0x00029c50    0x190  sh_sh.o [3]
    .text                 ro code  0x00029de0    0x204  sh_type.o [3]
    .text                 ro code  0x00029fe4    0x4b0  sh_write.o [3]
    .text                 ro code  0x0002a494    0x35c  sh_writetest.o [3]
    .text                 ro code  0x0002a7f0    0x540  sdcard_esdhc.o [3]
    .text                 ro code  0x0002ad30      0x4  hwtimer_kinetis.o [3]
    .text                 ro code  0x0002ad34     0x44  idletask.o [3]
    .text                 ro code  0x0002ad78     0x6c  inittask.o [3]
    .text                 ro code  0x0002ade4      0x4  inittask.o [3]
    .text                 ro code  0x0002ade8    0x120  hwtimer_systick.o [3]
    .text                 ro code  0x0002af08    0xfe0  ehci_dev_main.o [3]
    .text                 ro code  0x0002bee8     0x40  zero_init3.o [6]
    .text                 ro code  0x0002bf28     0x78  lz77_init_single.o [6]
  .rodata                 const    0x0002bfc0      0x8  K66BLEZ1_ADC.o [1]
  .rodata                 const    0x0002c000      0x8  K66BLEZ1_ADC.o [1]
  KERNEL                  ro code  0x0002c010    0x2f0  dispatch.o [3]
  .rodata                 const    0x0002c300     0x14  App_logger.o [1]
  .rodata                 const    0x0002c314     0x30  App_logger.o [1]
  .rodata                 const    0x0002c344     0x30  App_logger.o [1]
  .rodata                 const    0x0002c374     0x1c  App_logger.o [1]
  .rodata                 const    0x0002c390      0x8  App_logger.o [1]
  .rodata                 const    0x0002c398     0x18  App_logger.o [1]
  .rodata                 const    0x0002c3b0     0x10  App_logger.o [1]
  .rodata                 const    0x0002c3c0     0x10  App_logger.o [1]
  .rodata                 const    0x0002c3d0     0x28  App_logger.o [1]
  .rodata                 const    0x0002c3f8     0x28  App_logger.o [1]
  .rodata                 const    0x0002c420     0x28  App_logger.o [1]
  .rodata                 const    0x0002c448     0x18  App_logger.o [1]
  .rodata                 const    0x0002c460      0x8  App_logger.o [1]
  .rodata                 const    0x0002c468     0x20  App_logger.o [1]
  .rodata                 const    0x0002c488     0x24  App_logger.o [1]
  .rodata                 const    0x0002c4ac    0x200  CRC_utils.o [1]
  .rodata                 const    0x0002c6ac     0x10  freemaster_protocol.o [1]
  .rodata                 const    0x0002c6bc      0xc  FreeMaster_vars.o [1]
  .rodata                 const    0x0002c6c8      0xc  FreeMaster_vars.o [1]
  .rodata                 const    0x0002c6d4      0x8  FreeMaster_vars.o [1]
  .rodata                 const    0x0002c6dc     0x10  FreeMaster_vars.o [1]
  .rodata                 const    0x0002c6ec     0x10  FreeMaster_vars.o [1]
  .rodata                 const    0x0002c6fc     0x18  FreeMaster_vars.o [1]
  .rodata                 const    0x0002c714     0x14  FreeMaster_vars.o [1]
  .rodata                 const    0x0002c728     0x10  FreeMaster_vars.o [1]
  .rodata                 const    0x0002c738     0x10  FreeMaster_vars.o [1]
  .rodata                 const    0x0002c748     0x10  FreeMaster_vars.o [1]
  .rodata                 const    0x0002c758     0x14  FreeMaster_vars.o [1]
  .rodata                 const    0x0002c76c     0x18  FreeMaster_vars.o [1]
  .rodata                 const    0x0002c784     0x1c  FreeMaster_vars.o [1]
  .rodata                 const    0x0002c7a0     0x18  FreeMaster_vars.o [1]
  .rodata                 const    0x0002c7b8     0x18  FreeMaster_vars.o [1]
  .rodata                 const    0x0002c7d0     0x18  FreeMaster_vars.o [1]
  .rodata                 const    0x0002c7e8     0x14  FreeMaster_vars.o [1]
  .rodata                 const    0x0002c7fc     0x18  FreeMaster_vars.o [1]
  .rodata                 const    0x0002c814     0x10  FreeMaster_vars.o [1]
  .rodata                 const    0x0002c824     0x10  FreeMaster_vars.o [1]
  .rodata                 const    0x0002c834     0x14  FreeMaster_vars.o [1]
  .rodata                 const    0x0002c848     0x1c  FreeMaster_vars.o [1]
  .rodata                 const    0x0002c864     0x18  FreeMaster_vars.o [1]
  .rodata                 const    0x0002c87c     0x20  FreeMaster_vars.o [1]
  .rodata                 const    0x0002c89c     0x14  FreeMaster_vars.o [1]
  .rodata                 const    0x0002c8b0     0x18  FreeMaster_vars.o [1]
  .rodata                 const    0x0002c8c8     0x14  FreeMaster_vars.o [1]
  .rodata                 const    0x0002c8dc      0xc  FreeMaster_vars.o [1]
  .rodata                 const    0x0002c8e8      0xc  FreeMaster_vars.o [1]
  .rodata                 const    0x0002c8f4     0x14  FreeMaster_vars.o [1]
  .rodata                 const    0x0002c908     0x10  FreeMaster_vars.o [1]
  .rodata                 const    0x0002c918     0x10  FreeMaster_vars.o [1]
  .rodata                 const    0x0002c928     0x10  FreeMaster_vars.o [1]
  .rodata                 const    0x0002c938     0x10  FreeMaster_vars.o [1]
  .rodata                 const    0x0002c948     0x14  FreeMaster_vars.o [1]
  .rodata                 const    0x0002c95c     0x14  FreeMaster_vars.o [1]
  .rodata                 const    0x0002c970     0x10  FreeMaster_vars.o [1]
  .rodata                 const    0x0002c980     0x14  FreeMaster_vars.o [1]
  .rodata                 const    0x0002c994     0x14  FreeMaster_vars.o [1]
  .rodata                 const    0x0002c9a8     0x18  FreeMaster_vars.o [1]
  .rodata                 const    0x0002c9c0     0x18  FreeMaster_vars.o [1]
  .rodata                 const    0x0002c9d8     0x18  FreeMaster_vars.o [1]
  .rodata                 const    0x0002c9f0     0x18  FreeMaster_vars.o [1]
  .rodata                 const    0x0002ca08     0x1c  FreeMaster_vars.o [1]
  .rodata                 const    0x0002ca24     0x1c  FreeMaster_vars.o [1]
  .rodata                 const    0x0002ca40     0x1c  FreeMaster_vars.o [1]
  .rodata                 const    0x0002ca5c     0x1c  FreeMaster_vars.o [1]
  .rodata                 const    0x0002ca78     0x18  FreeMaster_vars.o [1]
  .rodata                 const    0x0002ca90      0xc  FreeMaster_vars.o [1]
  .rodata                 const    0x0002ca9c      0xc  FreeMaster_vars.o [1]
  .rodata                 const    0x0002caa8      0xc  FreeMaster_vars.o [1]
  .rodata                 const    0x0002cab4      0xc  FreeMaster_vars.o [1]
  .rodata                 const    0x0002cac0      0xc  FreeMaster_vars.o [1]
  .rodata                 const    0x0002cacc      0xc  FreeMaster_vars.o [1]
  .rodata                 const    0x0002cad8      0xc  FreeMaster_vars.o [1]
  .rodata                 const    0x0002cae4      0xc  FreeMaster_vars.o [1]
  .rodata                 const    0x0002caf0     0x10  FreeMaster_vars.o [1]
  .rodata                 const    0x0002cb00     0x14  FreeMaster_vars.o [1]
  .rodata                 const    0x0002cb14     0x18  FreeMaster_vars.o [1]
  .rodata                 const    0x0002cb2c     0x18  FreeMaster_vars.o [1]
  .rodata                 const    0x0002cb44     0x18  FreeMaster_vars.o [1]
  .rodata                 const    0x0002cb5c     0x18  FreeMaster_vars.o [1]
  .rodata                 const    0x0002cb74     0x18  FreeMaster_vars.o [1]
  .rodata                 const    0x0002cb8c     0x18  FreeMaster_vars.o [1]
  .rodata                 const    0x0002cba4     0x14  FreeMaster_vars.o [1]
  .rodata                 const    0x0002cbb8     0x14  FreeMaster_vars.o [1]
  .rodata                 const    0x0002cbcc     0x14  FreeMaster_vars.o [1]
  .rodata                 const    0x0002cbe0     0x18  FreeMaster_vars.o [1]
  .rodata                 const    0x0002cbf8     0x18  FreeMaster_vars.o [1]
  .rodata                 const    0x0002cc10     0x18  FreeMaster_vars.o [1]
  .rodata                 const    0x0002cc28     0x14  FreeMaster_vars.o [1]
  .rodata                 const    0x0002cc3c     0x14  FreeMaster_vars.o [1]
  .rodata                 const    0x0002cc50     0x14  FreeMaster_vars.o [1]
  .rodata                 const    0x0002cc64     0x14  FreeMaster_vars.o [1]
  .rodata                 const    0x0002cc78     0x14  FreeMaster_vars.o [1]
  .rodata                 const    0x0002cc8c     0x18  FreeMaster_vars.o [1]
  .rodata                 const    0x0002cca4     0x10  FreeMaster_vars.o [1]
  .rodata                 const    0x0002ccb4     0x10  FreeMaster_vars.o [1]
  .rodata                 const    0x0002ccc4    0x4e0  FreeMaster_vars.o [1]
  .rodata                 const    0x0002d1a4    0x7d0  Init_Pins.o [1]
  .rodata                 const    0x0002d974     0x20  K66BLEZ1_ADC.o [1]
  .rodata                 const    0x0002d994     0x30  K66BLEZ1_SPI.o [1]
  .rodata                 const    0x0002d9c4      0x8  Main.o [1]
  .rodata                 const    0x0002d9cc      0x8  Main.o [1]
  .rodata                 const    0x0002d9d4      0x8  Main.o [1]
  .rodata                 const    0x0002d9dc      0x8  Main.o [1]
  .rodata                 const    0x0002d9e4      0x8  Main.o [1]
  .rodata                 const    0x0002d9ec      0x8  Main.o [1]
  .rodata                 const    0x0002d9f4      0x8  Main.o [1]
  .rodata                 const    0x0002d9fc      0xc  Main.o [1]
  .rodata                 const    0x0002da08      0x8  Main.o [1]
  .rodata                 const    0x0002da10      0x8  Main.o [1]
  .rodata                 const    0x0002da18     0x18  Main.o [1]
  .rodata                 const    0x0002da30    0x160  Main.o [1]
  .rodata                 const    0x0002db90      0xc  MFS_man.o [1]
  .rodata                 const    0x0002db9c      0x8  MFS_man.o [1]
  .rodata                 const    0x0002dba4     0x30  MFS_man.o [1]
  .rodata                 const    0x0002dbd4      0x8  MFS_man.o [1]
  .rodata                 const    0x0002dbdc     0x28  MFS_man.o [1]
  .rodata                 const    0x0002dc04     0x20  MFS_man.o [1]
  .rodata                 const    0x0002dc24     0x28  MFS_man.o [1]
  .rodata                 const    0x0002dc4c      0x8  MFS_man.o [1]
  .rodata                 const    0x0002dc54     0x24  MFS_man.o [1]
  .rodata                 const    0x0002dc78     0x20  MFS_man.o [1]
  .rodata                 const    0x0002dc98     0x14  MFS_man.o [1]
  .rodata                 const    0x0002dcac     0x2c  MFS_man.o [1]
  .rodata                 const    0x0002dcd8     0x28  MFS_man.o [1]
  .rodata                 const    0x0002dd00     0x1c  MFS_man.o [1]
  .rodata                 const    0x0002dd1c     0x30  MFS_man.o [1]
  .rodata                 const    0x0002dd4c     0x20  MFS_man.o [1]
  .rodata                 const    0x0002dd6c     0x18  MFS_man.o [1]
  .rodata                 const    0x0002dd84      0x4  MFS_Shell.o [1]
  .rodata                 const    0x0002dd88      0x8  MFS_Shell.o [1]
  .rodata                 const    0x0002dd90      0x8  MFS_Shell.o [1]
  .rodata                 const    0x0002dd98      0x4  MFS_Shell.o [1]
  .rodata                 const    0x0002dd9c      0x4  MFS_Shell.o [1]
  .rodata                 const    0x0002dda0      0x8  MFS_Shell.o [1]
  .rodata                 const    0x0002dda8      0x4  MFS_Shell.o [1]
  .rodata                 const    0x0002ddac      0x4  MFS_Shell.o [1]
  .rodata                 const    0x0002ddb0      0x8  MFS_Shell.o [1]
  .rodata                 const    0x0002ddb8      0x8  MFS_Shell.o [1]
  .rodata                 const    0x0002ddc0      0x8  MFS_Shell.o [1]
  .rodata                 const    0x0002ddc8      0x8  MFS_Shell.o [1]
  .rodata                 const    0x0002ddd0      0x4  MFS_Shell.o [1]
  .rodata                 const    0x0002ddd4      0x8  MFS_Shell.o [1]
  .rodata                 const    0x0002dddc      0x4  MFS_Shell.o [1]
  .rodata                 const    0x0002dde0      0x8  MFS_Shell.o [1]
  .rodata                 const    0x0002dde8      0x4  MFS_Shell.o [1]
  .rodata                 const    0x0002ddec      0x8  MFS_Shell.o [1]
  .rodata                 const    0x0002ddf4      0x8  MFS_Shell.o [1]
  .rodata                 const    0x0002ddfc      0x8  MFS_Shell.o [1]
  .rodata                 const    0x0002de04      0x8  MFS_Shell.o [1]
  .rodata                 const    0x0002de0c      0xc  MFS_Shell.o [1]
  .rodata                 const    0x0002de18     0x20  MFS_Shell.o [1]
  .rodata                 const    0x0002de38     0xb8  MFS_Shell.o [1]
  .rodata                 const    0x0002def0     0x34  MFS_test.o [1]
  .rodata                 const    0x0002df24     0x34  MFS_test.o [1]
  .rodata                 const    0x0002df58     0x34  MFS_test.o [1]
  .rodata                 const    0x0002df8c     0x2c  MFS_test.o [1]
  .rodata                 const    0x0002dfb8      0x8  MFS_test.o [1]
  .rodata                 const    0x0002dfc0     0x28  MFS_test.o [1]
  .rodata                 const    0x0002dfe8     0x34  MFS_test.o [1]
  .rodata                 const    0x0002e01c      0xc  MFS_test.o [1]
  .rodata                 const    0x0002e028     0x20  MFS_test.o [1]
  .rodata                 const    0x0002e048     0x2c  MFS_test.o [1]
  .rodata                 const    0x0002e074     0x24  MFS_test.o [1]
  .rodata                 const    0x0002e098     0x20  MFS_test.o [1]
  .rodata                 const    0x0002e0b8     0x48  MFS_test.o [1]
  .rodata                 const    0x0002e100     0x24  MFS_test.o [1]
  .rodata                 const    0x0002e124     0x40  MFS_test.o [1]
  .rodata                 const    0x0002e164     0x40  MFS_test.o [1]
  .rodata                 const    0x0002e1a4     0x40  MFS_test.o [1]
  .rodata                 const    0x0002e1e4     0x28  MFS_test.o [1]
  .rodata                 const    0x0002e20c     0x34  MFS_test.o [1]
  .rodata                 const    0x0002e240     0x24  MFS_test.o [1]
  .rodata                 const    0x0002e264     0x40  MFS_test.o [1]
  .rodata                 const    0x0002e2a4     0x28  MFS_test.o [1]
  .rodata                 const    0x0002e2cc     0x34  MFS_test.o [1]
  .rodata                 const    0x0002e300     0x14  MFS_test.o [1]
  .rodata                 const    0x0002e314     0x24  MFS_test.o [1]
  .rodata                 const    0x0002e338     0x44  MFS_test.o [1]
  .rodata                 const    0x0002e37c     0x28  MFS_test.o [1]
  .rodata                 const    0x0002e3a4      0x8  MFS_test.o [1]
  .rodata                 const    0x0002e3ac     0x30  MFS_test.o [1]
  .rodata                 const    0x0002e3dc      0xc  MFS_test.o [1]
  .rodata                 const    0x0002e3e8     0x24  MFS_test.o [1]
  .rodata                 const    0x0002e40c     0x1c  MFS_test.o [1]
  .rodata                 const    0x0002e428     0x24  MFS_test.o [1]
  .rodata                 const    0x0002e44c     0x1c  MFS_test.o [1]
  .rodata                 const    0x0002e468     0x1c  MFS_test.o [1]
  .rodata                 const    0x0002e484     0x24  MFS_test.o [1]
  .rodata                 const    0x0002e4a8     0x38  MFS_test.o [1]
  .rodata                 const    0x0002e4e0     0x30  MFS_test.o [1]
  .rodata                 const    0x0002e510     0x28  MFS_test.o [1]
  .rodata                 const    0x0002e538     0x24  MFS_test.o [1]
  .rodata                 const    0x0002e55c     0x10  MFS_test.o [1]
  .rodata                 const    0x0002e56c     0x10  Monitor_usb_drv.o [1]
  .rodata                 const    0x0002e57c     0x18  Monitor_usb_drv.o [1]
  .rodata                 const    0x0002e594     0x10  Monitor_usb_drv.o [1]
  .rodata                 const    0x0002e5a4     0x14  MonitorVT100.o [1]
  .rodata                 const    0x0002e5b8     0xd0  MonitorVT100.o [1]
  .rodata                 const    0x0002e688     0x14  MonitorVT100.o [1]
  .rodata                 const    0x0002e69c     0xbc  MonitorVT100.o [1]
  .rodata                 const    0x0002e758      0x4  MonitorVT100.o [1]
  .rodata                 const    0x0002e75c      0x4  MonitorVT100.o [1]
  .rodata                 const    0x0002e760      0x4  MonitorVT100.o [1]
  .rodata                 const    0x0002e764      0x4  MonitorVT100.o [1]
  .rodata                 const    0x0002e768      0x4  MonitorVT100.o [1]
  .rodata                 const    0x0002e76c      0x4  MonitorVT100.o [1]
  .rodata                 const    0x0002e770      0x4  MonitorVT100.o [1]
  .rodata                 const    0x0002e774      0x4  MonitorVT100.o [1]
  .rodata                 const    0x0002e778      0x4  MonitorVT100.o [1]
  .rodata                 const    0x0002e77c      0x4  MonitorVT100.o [1]
  .rodata                 const    0x0002e780      0x4  MonitorVT100.o [1]
  .rodata                 const    0x0002e784      0x4  MonitorVT100.o [1]
  .rodata                 const    0x0002e788     0x28  MonitorVT100.o [1]
  .rodata                 const    0x0002e7b0     0x28  MonitorVT100.o [1]
  .rodata                 const    0x0002e7d8     0x34  MonitorVT100.o [1]
  .rodata                 const    0x0002e80c     0x14  MonitorVT100.o [1]
  .rodata                 const    0x0002e820     0x2c  MonitorVT100.o [1]
  .rodata                 const    0x0002e84c     0x20  MonitorVT100.o [1]
  .rodata                 const    0x0002e86c     0x4c  MonitorVT100.o [1]
  .rodata                 const    0x0002e8b8     0x24  MonitorVT100.o [1]
  .rodata                 const    0x0002e8dc      0x8  MonitorVT100.o [1]
  .rodata                 const    0x0002e8e4     0x10  MonitorVT100.o [1]
  .rodata                 const    0x0002e8f4      0x4  MonitorVT100.o [1]
  .rodata                 const    0x0002e8f8      0x8  MonitorVT100.o [1]
  .rodata                 const    0x0002e900      0x8  MonitorVT100.o [1]
  .rodata                 const    0x0002e908      0x8  MonitorVT100.o [1]
  .rodata                 const    0x0002e910     0x14  MonitorVT100.o [1]
  .rodata                 const    0x0002e924     0x30  MonitorVT100.o [1]
  .rodata                 const    0x0002e954     0x3c  MonitorVT100.o [1]
  .rodata                 const    0x0002e990      0x8  MonitorVT100.o [1]
  .rodata                 const    0x0002e998     0x18  MonitorVT100.o [1]
  .rodata                 const    0x0002e9b0      0x8  MonitorVT100.o [1]
  .rodata                 const    0x0002e9b8     0x1c  MonitorVT100.o [1]
  .rodata                 const    0x0002e9d4     0x1c  MonitorVT100.o [1]
  .rodata                 const    0x0002e9f0     0x3c  MonitorVT100.o [1]
  .rodata                 const    0x0002ea2c     0x24  MonitorVT100.o [1]
  .rodata                 const    0x0002ea50     0x58  MonitorVT100.o [1]
  .rodata                 const    0x0002eaa8      0x8  MonitorVT100.o [1]
  .rodata                 const    0x0002eab0     0x28  MonitorVT100.o [1]
  .rodata                 const    0x0002ead8     0x20  MonitorVT100.o [1]
  .rodata                 const    0x0002eaf8     0x18  MonitorVT100.o [1]
  .rodata                 const    0x0002eb10     0x18  MonitorVT100.o [1]
  .rodata                 const    0x0002eb28      0xc  MonitorVT100.o [1]
  .rodata                 const    0x0002eb34     0x14  MonitorVT100.o [1]
  .rodata                 const    0x0002eb48     0x20  MonitorVT100.o [1]
  .rodata                 const    0x0002eb68     0x3c  MonitorVT100.o [1]
  .rodata                 const    0x0002eba4     0x2c  MonitorVT100.o [1]
  .rodata                 const    0x0002ebd0     0x28  MonitorVT100.o [1]
  .rodata                 const    0x0002ebf8     0x24  MonitorVT100.o [1]
  .rodata                 const    0x0002ec1c     0x78  MonitorVT100.o [1]
  .rodata                 const    0x0002ec94      0xc  MonitorVT100.o [1]
  .rodata                 const    0x0002eca0      0xc  MonitorVT100.o [1]
  .rodata                 const    0x0002ecac     0x54  MonitorVT100.o [1]
  .rodata                 const    0x0002ed00      0xc  MonitorVT100.o [1]
  .rodata                 const    0x0002ed0c      0xc  MonitorVT100.o [1]
  .rodata                 const    0x0002ed18     0x98  Parameters.o [1]
  .rodata                 const    0x0002edb0     0x20  Parameters.o [1]
  .rodata                 const    0x0002edd0     0x20  Parameters.o [1]
  .rodata                 const    0x0002edf0     0x18  Parameters.o [1]
  .rodata                 const    0x0002ee08     0x1c  Parameters.o [1]
  .rodata                 const    0x0002ee24      0x8  Parameters.o [1]
  .rodata                 const    0x0002ee2c      0xc  Parameters.o [1]
  .rodata                 const    0x0002ee38      0xc  Parameters.o [1]
  .rodata                 const    0x0002ee44     0x14  Parameters.o [1]
  .rodata                 const    0x0002ee58     0x4c  Parameters.o [1]
  .rodata                 const    0x0002eea4      0xc  Parameters.o [1]
  .rodata                 const    0x0002eeb0      0x8  Parameters.o [1]
  .rodata                 const    0x0002eeb8      0x8  Parameters.o [1]
  .rodata                 const    0x0002eec0      0x8  Parameters.o [1]
  .rodata                 const    0x0002eec8     0x1c  Parameters.o [1]
  .rodata                 const    0x0002eee4      0x8  Parameters.o [1]
  .rodata                 const    0x0002eeec      0x8  Parameters.o [1]
  .rodata                 const    0x0002eef4     0x18  Parameters.o [1]
  .rodata                 const    0x0002ef0c     0x1c  Parameters.o [1]
  .rodata                 const    0x0002ef28     0x10  Parameters.o [1]
  .rodata                 const    0x0002ef38     0x28  Parameters.o [1]
  .rodata                 const    0x0002ef60      0x8  Parameters.o [1]
  .rodata                 const    0x0002ef68     0x24  Parameters.o [1]
  .rodata                 const    0x0002ef8c     0x18  Parameters.o [1]
  .rodata                 const    0x0002efa4     0x3c  Parameters.o [1]
  .rodata                 const    0x0002efe0      0x8  Parameters.o [1]
  .rodata                 const    0x0002efe8     0x40  Parameters.o [1]
  .rodata                 const    0x0002f028     0x14  Parameters.o [1]
  .rodata                 const    0x0002f03c     0x18  Parameters.o [1]
  .rodata                 const    0x0002f054     0x20  Parameters.o [1]
  .rodata                 const    0x0002f074     0x14  Supervisor_task.o [1]
  .rodata                 const    0x0002f088     0x34  Supervisor_task.o [1]
  .rodata                 const    0x0002f0bc     0x20  Supervisor_task.o [1]
  .rodata                 const    0x0002f0dc     0x10  Supervisor_task.o [1]
  .rodata                 const    0x0002f0ec     0x20  Supervisor_task.o [1]
  .rodata                 const    0x0002f10c      0xc  Supervisor_task.o [1]
  .rodata                 const    0x0002f118      0xc  Supervisor_task.o [1]
  .rodata                 const    0x0002f124     0x14  Supervisor_task.o [1]
  .rodata                 const    0x0002f138     0x24  Supervisor_task.o [1]
  .rodata                 const    0x0002f15c     0x28  Supervisor_task.o [1]
  .rodata                 const    0x0002f184     0x20  Supervisor_task.o [1]
  .rodata                 const    0x0002f1a4     0x2c  Supervisor_task.o [1]
  .rodata                 const    0x0002f1d0     0x50  Supervisor_task.o [1]
  .rodata                 const    0x0002f220     0x58  Supervisor_task.o [1]
  .rodata                 const    0x0002f278     0x50  Supervisor_task.o [1]
  .rodata                 const    0x0002f2c8     0x34  Supervisor_task.o [1]
  .rodata                 const    0x0002f2fc     0x24  Supervisor_task.o [1]
  .rodata                 const    0x0002f320     0x18  Supervisor_task.o [1]
  .rodata                 const    0x0002f338     0x34  U3HB01_DRV8305.o [1]
  .rodata                 const    0x0002f36c     0x34  U3HB01_DRV8305.o [1]
  .rodata                 const    0x0002f3a0     0x34  U3HB01_DRV8305.o [1]
  .rodata                 const    0x0002f3d4     0x34  U3HB01_DRV8305.o [1]
  .rodata                 const    0x0002f408     0x34  U3HB01_DRV8305.o [1]
  .rodata                 const    0x0002f43c     0x34  U3HB01_DRV8305.o [1]
  .rodata                 const    0x0002f470     0x34  U3HB01_DRV8305.o [1]
  .rodata                 const    0x0002f4a4     0x34  U3HB01_DRV8305.o [1]
  .rodata                 const    0x0002f4d8     0x34  U3HB01_DRV8305.o [1]
  .rodata                 const    0x0002f50c     0x34  U3HB01_DRV8305.o [1]
  .rodata                 const    0x0002f540     0x34  U3HB01_DRV8305.o [1]
  .rodata                 const    0x0002f574     0x34  U3HB01_DRV8305.o [1]
  .rodata                 const    0x0002f5a8     0x14  U3HB01_DRV8305.o [1]
  .rodata                 const    0x0002f5bc     0x14  U3HB01_DRV8305.o [1]
  .rodata                 const    0x0002f5d0     0x18  U3HB01_DRV8305.o [1]
  .rodata                 const    0x0002f5e8     0x18  U3HB01_DRV8305.o [1]
  .rodata                 const    0x0002f600     0xc0  U3HB01_DRV8305.o [1]
  .rodata                 const    0x0002f6c0     0x48  U3HB01_Hall_BLDC.o [1]
  .rodata                 const    0x0002f708     0x30  U3HB01_Hall_BLDC.o [1]
  .rodata                 const    0x0002f738      0x8  U3HB01_main.o [1]
  .rodata                 const    0x0002f740      0xc  U3HB01_monitor.o [1]
  .rodata                 const    0x0002f74c     0x60  U3HB01_monitor.o [1]
  .rodata                 const    0x0002f7ac     0x14  U3HB01_monitor.o [1]
  .rodata                 const    0x0002f7c0     0x10  U3HB01_monitor.o [1]
  .rodata                 const    0x0002f7d0     0x18  U3HB01_monitor.o [1]
  .rodata                 const    0x0002f7e8     0x44  U3HB01_monitor.o [1]
  .rodata                 const    0x0002f82c      0x8  U3HB01_monitor.o [1]
  .rodata                 const    0x0002f834      0xc  U3HB01_monitor.o [1]
  .rodata                 const    0x0002f840     0x1c  U3HB01_monitor.o [1]
  .rodata                 const    0x0002f85c     0x10  U3HB01_monitor.o [1]
  .rodata                 const    0x0002f86c     0x30  U3HB01_monitor.o [1]
  .rodata                 const    0x0002f89c      0xc  U3HB01_monitor.o [1]
  .rodata                 const    0x0002f8a8      0x8  U3HB01_Params.o [1]
  .rodata                 const    0x0002f8b0     0x18  U3HB01_Params.o [1]
  .rodata                 const    0x0002f8c8      0xc  U3HB01_Params.o [1]
  .rodata                 const    0x0002f8d4     0x14  U3HB01_Params.o [1]
  .rodata                 const    0x0002f8e8     0x14  U3HB01_Params.o [1]
  .rodata                 const    0x0002f8fc     0x10  U3HB01_Params.o [1]
  .rodata                 const    0x0002f90c      0x8  U3HB01_Params.o [1]
  .rodata                 const    0x0002f914     0x28  U3HB01_Params.o [1]
  .rodata                 const    0x0002f93c      0x8  U3HB01_Params.o [1]
  .rodata                 const    0x0002f944      0x4  U3HB01_Params.o [1]
  .rodata                 const    0x0002f948     0x14  U3HB01_Params.o [1]
  .rodata                 const    0x0002f95c      0x8  U3HB01_Params.o [1]
  .rodata                 const    0x0002f964      0x4  U3HB01_Params.o [1]
  .rodata                 const    0x0002f968     0x10  U3HB01_Params.o [1]
  .rodata                 const    0x0002f978      0x8  U3HB01_Params.o [1]
  .rodata                 const    0x0002f980      0x8  U3HB01_Params.o [1]
  .rodata                 const    0x0002f988     0x1c  U3HB01_Params.o [1]
  .rodata                 const    0x0002f9a4      0x8  U3HB01_Params.o [1]
  .rodata                 const    0x0002f9ac     0x18  U3HB01_Params.o [1]
  .rodata                 const    0x0002f9c4      0x8  U3HB01_Params.o [1]
  .rodata                 const    0x0002f9cc     0x18  U3HB01_Params.o [1]
  .rodata                 const    0x0002f9e4      0x8  U3HB01_Params.o [1]
  .rodata                 const    0x0002f9ec     0x18  U3HB01_Params.o [1]
  .rodata                 const    0x0002fa04      0x8  U3HB01_Params.o [1]
  .rodata                 const    0x0002fa0c     0x24  U3HB01_Params.o [1]
  .rodata                 const    0x0002fa30      0x8  U3HB01_Params.o [1]
  .rodata                 const    0x0002fa38      0x4  U3HB01_Params.o [1]
  .rodata                 const    0x0002fa3c     0x24  U3HB01_Params.o [1]
  .rodata                 const    0x0002fa60      0x8  U3HB01_Params.o [1]
  .rodata                 const    0x0002fa68     0x20  U3HB01_Params.o [1]
  .rodata                 const    0x0002fa88      0x8  U3HB01_Params.o [1]
  .rodata                 const    0x0002fa90     0x18  U3HB01_Params.o [1]
  .rodata                 const    0x0002faa8      0x8  U3HB01_Params.o [1]
  .rodata                 const    0x0002fab0     0x18  U3HB01_Params.o [1]
  .rodata                 const    0x0002fac8      0x8  U3HB01_Params.o [1]
  .rodata                 const    0x0002fad0      0x8  U3HB01_Params.o [1]
  .rodata                 const    0x0002fad8     0x1c  U3HB01_Params.o [1]
  .rodata                 const    0x0002faf4      0x8  U3HB01_Params.o [1]
  .rodata                 const    0x0002fafc     0x40  U3HB01_Params.o [1]
  .rodata                 const    0x0002fb3c    0x2a4  U3HB01_Params.o [1]
  .rodata                 const    0x0002fde0    0x100  U3HB01_WS2812B.o [1]
  .rodata                 const    0x0002fee0     0x10  init_sdcard.o [3]
  .rodata                 const    0x0002fef0     0x18  sh_format.o [3]
  .rodata                 const    0x0002ff08      0x4  sh_readtest.o [3]
  .rodata                 const    0x0002ff0c     0x24  mqx.o [3]
  .rodata                 const    0x0002ff30     0x34  dir_read.o [3]
  .rodata                 const    0x0002ff64     0x50  device_ehci_interface.o [3]
  .rodata                 const    0x0002ffb4      0xc  init_esdhc.o [3]
  .rodata                 const    0x0002ffc0     0x48  init_sci.o [3]
  .rodata                 const    0x00030008     0x18  hwtimer_systick.o [3]
  .rodata                 const    0x00030020     0x38  mqx_init.o [3]
  .rodata                 const    0x00030058      0x2  FreeMaster_vars.o [1]
  .rodata                 const    0x0003005a      0x2  FreeMaster_vars.o [1]
  .rodata                 const    0x0003005c      0x2  FreeMaster_vars.o [1]
  .rodata                 const    0x0003005e      0x2  FreeMaster_vars.o [1]
  .rodata                 const    0x00030060      0x2  FreeMaster_vars.o [1]
  .rodata                 const    0x00030062      0x2  FreeMaster_vars.o [1]
  .rodata                 const    0x00030064      0x2  FreeMaster_vars.o [1]
  .rodata                 const    0x00030066      0x2  MFS_Shell.o [1]
  .rodata                 const    0x00030068      0x2  U3HB01_Params.o [1]
  .iar.init_table         const    0x0003006c     0x40  - Linker created -
  .rodata                 const    0x000300ac      0x1  MonitorVT100.o [1]
  .rodata                 const    0x000300ad      0x1  U3HB01_Params.o [1]
  .rodata                 const    0x000300ae      0x0  zero_init3.o [6]
  .rodata                 const    0x000300ae      0x0  lz77_init_single.o [6]
  Initializer bytes       const    0x000300ae     0x26  <for rw section .vectors_ram-1>
  Initializer bytes       const    0x000300d4    0x2c4  <for USER_DEFAULT_MEMORY-1>
  Initializer bytes       const    0x00030398      0x3  <for KERNEL_DATA-1>
  FLASHX_POOL                      0x00031000      0x1  <Block>
    .flashx               const    0x00031000      0x1  vectors.o [3]
    .flashx               const    0x00031001      0x0  vectors.o [3]
                                 - 0x00031001  0x30be1

"A2":                                              0x4
  CHECKSUM                         0x000fffd0      0x4  <Block>
    .checksum             const    0x000fffd0      0x4  Place holder __checksum
                                 - 0x000fffd4      0x4

"A1":                                            0x400
  rw section .vectors_ram-1
                                   0x1fff0000    0x400  <Init block>
    .vectors_ram          inited   0x1fff0000    0x400  vectors.o [3]
                                 - 0x1fff0400    0x400

"P2":                                          0x18e04
  USER_MEMORY                      0x1fff0400  0x18dfc  <Block>
    USER_DEFAULT_MEMORY            0x1fff0400  0x18dfc  <Block>
      USER_DEFAULT_MEMORY-1
                                   0x1fff0400    0x701  <Init block>
        .data             inited   0x1fff0400     0x98  mqx.o [3]
        .data             inited   0x1fff0498     0x18  Monitor_usb_drv.o [1]
        .data             inited   0x1fff04b0     0x18  Monitor_usb_drv.o [1]
        .data             inited   0x1fff04c8     0x30  MonitorVT100.o [1]
        .data             inited   0x1fff04f8      0x4  Parameters.o [1]
        .data             inited   0x1fff04fc     0x18  U3HB01_DRV8305.o [1]
        .data             inited   0x1fff0514     0x20  U3HB01_Hall_sensor.o [1]
        .data             inited   0x1fff0534     0x90  U3HB01_Hall_sensor.o [1]
        .data             inited   0x1fff05c4      0x4  U3HB01_Hall_sensor.o [1]
        .data             inited   0x1fff05c8      0x8  usb_device_descriptor.o [1]
        .data             inited   0x1fff05d0     0x10  usb_device_descriptor.o [1]
        .data             inited   0x1fff05e0     0x18  usb_device_descriptor.o [1]
        .data             inited   0x1fff05f8      0x8  usb_device_descriptor.o [1]
        .data             inited   0x1fff0600     0x10  usb_device_descriptor.o [1]
        .data             inited   0x1fff0610     0x18  usb_device_descriptor.o [1]
        .data             inited   0x1fff0628     0x18  usb_device_descriptor.o [1]
        .data             inited   0x1fff0640      0x8  usb_device_descriptor.o [1]
        .data             inited   0x1fff0648     0x14  usb_device_descriptor.o [1]
        .data             inited   0x1fff065c     0x90  usb_device_descriptor.o [1]
        .data             inited   0x1fff06ec      0xc  usb_device_descriptor.o [1]
        .data             inited   0x1fff06f8     0x90  usb_device_descriptor.o [1]
        .data             inited   0x1fff0788      0x4  usb_device_descriptor.o [1]
        .data             inited   0x1fff078c     0x14  usb_device_descriptor.o [1]
        .data             inited   0x1fff07a0     0x24  usb_device_descriptor.o [1]
        .data             inited   0x1fff07c4     0x14  usb_device_descriptor.o [1]
        .data             inited   0x1fff07d8     0x14  usb_device_descriptor.o [1]
        .data             inited   0x1fff07ec     0x24  usb_device_descriptor.o [1]
        .data             inited   0x1fff0810     0x20  usb_device_descriptor.o [1]
        .data             inited   0x1fff0830      0x8  usb_device_descriptor.o [1]
        .data             inited   0x1fff0838      0x8  usb_device_descriptor.o [1]
        .data             inited   0x1fff0840     0x18  usb_device_descriptor.o [1]
        .data             inited   0x1fff0858      0xc  usb_device_descriptor.o [1]
        .data             inited   0x1fff0864      0xc  usb_device_descriptor.o [1]
        .data             inited   0x1fff0870     0x14  usb_device_descriptor.o [1]
        .data             inited   0x1fff0884      0x8  USB_virtual_com1.o [1]
        .data             inited   0x1fff088c      0x8  USB_virtual_com2.o [1]
        .data             inited   0x1fff0894     0x14  sh_format.o [3]
        .data             inited   0x1fff08a8     0x24  usb_class.o [3]
        .data             inited   0x1fff08cc     0x28  usb_cdc_pstn.o [3]
        .data             inited   0x1fff08f4     0x24  usb_msc_scsi.o [3]
        .data             inited   0x1fff0918     0x5c  usb_framework.o [3]
        __DLIB_PERTHREAD  inited   0x1fff0974     0x8c  rand.o [4]
        __DLIB_PERTHREAD  inited   0x1fff0a00     0x74  setlocale.o [4]
        __DLIB_PERTHREAD  inited   0x1fff0a74     0x88  localeconv.o [4]
        __DLIB_PERTHREAD  inited   0x1fff0afc      0x4  errno.o [4]
        .data             inited   0x1fff0b00      0x1  bsp_cm.o [3]
      .bss                zero     0x1fff0b40      0xc  K66BLEZ1_ADC.o [1]
      .bss                zero     0x1fff0b80      0xc  K66BLEZ1_ADC.o [1]
      .bss                zero     0x1fff0bc0   0x16e4  U3HB01_WS2812B.o [1]
      .bss                zero     0x1fff22a4     0x1c  App_logger.o [1]
      .bss                zero     0x1fff22c0     0x48  init_bsp.o [3]
      .bss                zero     0x1fff2308   0x3500  App_logger.o [1]
      .bss                zero     0x1fff5808     0x10  App_logger.o [1]
      .bss                zero     0x1fff5818     0x2c  App_logger.o [1]
      .bss                zero     0x1fff5844    0x440  App_logger.o [1]
      .bss                zero     0x1fff5c84     0x20  freemaster_appcmd.o [1]
      .bss                zero     0x1fff5ca4      0xc  freemaster_appcmd.o [1]
      .bss                zero     0x1fff5cb0     0x28  freemaster_appcmd.o [1]
      .bss                zero     0x1fff5cd8     0x20  freemaster_rec.o [1]
      .bss                zero     0x1fff5cf8      0x8  freemaster_rec.o [1]
      .bss                zero     0x1fff5d00      0x4  freemaster_rec.o [1]
      .bss                zero     0x1fff5d04      0x4  freemaster_rec.o [1]
      .bss                zero     0x1fff5d08      0x4  freemaster_rec.o [1]
      .bss                zero     0x1fff5d0c      0x4  freemaster_rec.o [1]
      .bss                zero     0x1fff5d10      0x4  freemaster_rec.o [1]
      .bss                zero     0x1fff5d14      0x4  freemaster_rec.o [1]
      .bss                zero     0x1fff5d18      0x4  freemaster_rec.o [1]
      .bss                zero     0x1fff5d1c   0x7d00  freemaster_rec.o [1]
      .bss                zero     0x1fffda1c     0x20  freemaster_scope.o [1]
      .bss                zero     0x1fffda3c      0x8  freemaster_scope.o [1]
      .bss                zero     0x1fffda44     0x40  freemaster_serial.o [1]
      .bss                zero     0x1fffda84      0x4  freemaster_serial.o [1]
      .bss                zero     0x1fffda88      0x4  freemaster_serial.o [1]
      .bss                zero     0x1fffda8c      0x4  freemaster_serial.o [1]
      .bss                zero     0x1fffda90      0x4  freemaster_tsa.o [1]
      .bss                zero     0x1fffda94     0x1c  K66BLEZ1_ADC.o [1]
      .bss                zero     0x1fffdab0      0x8  K66BLEZ1_ADC.o [1]
      .bss                zero     0x1fffdab8      0x4  K66BLEZ1_ADC.o [1]
      .bss                zero     0x1fffdabc      0x4  K66BLEZ1_ADC.o [1]
      .bss                zero     0x1fffdac0      0x4  K66BLEZ1_ADC.o [1]
      .bss                zero     0x1fffdac4     0x24  K66BLEZ1_CAN.o [1]
      .bss                zero     0x1fffdae8      0x4  K66BLEZ1_CAN.o [1]
      .bss                zero     0x1fffdaec      0x4  K66BLEZ1_MKW40_Channel.o [1]
      .bss                zero     0x1fffdaf0     0x18  K66BLEZ1_SPI.o [1]
      .bss                zero     0x1fffdb08     0x84  K66BLEZ1_SPI.o [1]
      .bss                zero     0x1fffdb8c     0x10  LED_control.o [1]
      .bss                zero     0x1fffdb9c     0x98  Main.o [1]
      .bss                zero     0x1fffdc34      0x4  Main.o [1]
      .bss                zero     0x1fffdc38      0x4  Main.o [1]
      .bss                zero     0x1fffdc3c      0x4  MFS_man.o [1]
      .bss                zero     0x1fffdc40      0x4  MFS_man.o [1]
      .bss                zero     0x1fffdc44      0x4  MFS_man.o [1]
      .bss                zero     0x1fffdc48      0x4  MFS_man.o [1]
      .bss                zero     0x1fffdc4c     0x80  MKW40_Channel.o [1]
      .bss                zero     0x1fffdccc   0x1f40  MonitorVT100.o [1]
      .bss                zero     0x1ffffc0c      0x4  Task_FreeMaster.o [1]
      .bss                zero     0x1ffffc10     0x10  U3HB01_CAN.o [1]
      .bss                zero     0x1ffffc20     0x18  U3HB01_DRV8305.o [1]
      .bss                zero     0x1ffffc38      0x4  U3HB01_DRV8305.o [1]
      .bss                zero     0x1ffffc3c      0x4  U3HB01_DRV8305.o [1]
      .bss                zero     0x1ffffc40      0x4  U3HB01_DRV8305.o [1]
      .bss                zero     0x1ffffc44      0x4  U3HB01_DRV8305.o [1]
      .bss                zero     0x1ffffc48      0x4  U3HB01_DRV8305.o [1]
      .bss                zero     0x1ffffc4c      0x4  U3HB01_DRV8305.o [1]
      .bss                zero     0x1ffffc50      0x4  U3HB01_DRV8305.o [1]
      .bss                zero     0x1ffffc54      0x4  U3HB01_DRV8305.o [1]
      .bss                zero     0x1ffffc58      0x4  U3HB01_DRV8305.o [1]
      .bss                zero     0x1ffffc5c      0x4  U3HB01_DRV8305.o [1]
      .bss                zero     0x1ffffc60      0x4  U3HB01_DRV8305.o [1]
      .bss                zero     0x1ffffc64      0x4  U3HB01_DRV8305.o [1]
      .bss                zero     0x1ffffc68      0x4  U3HB01_DRV8305.o [1]
      .bss                zero     0x1ffffc6c     0x10  U3HB01_DRV8305.o [1]
      .bss                zero     0x1ffffc7c     0x80  U3HB01_ExtEncoder.o [1]
      .bss                zero     0x1ffffcfc     0x80  U3HB01_ExtEncoder.o [1]
      .bss                zero     0x1ffffd7c      0x8  U3HB01_ExtEncoder.o [1]
      .bss                zero     0x1ffffd84      0x4  U3HB01_FreemasterCmdMan.o [1]
      .bss                zero     0x1ffffd88      0x4  U3HB01_Hall_sensor.o [1]
      .bss                zero     0x1ffffd8c      0x4  U3HB01_Hall_sensor.o [1]
      .bss                zero     0x1ffffd90      0x4  U3HB01_Hall_sensor.o [1]
      .bss                zero     0x1ffffd94      0x4  U3HB01_Hall_sensor.o [1]
      .bss                zero     0x1ffffd98      0x4  U3HB01_Hall_sensor.o [1]
      .bss                zero     0x1ffffd9c      0x4  U3HB01_Hall_sensor.o [1]
      .bss                zero     0x1ffffda0      0x4  U3HB01_Hall_sensor.o [1]
      .bss                zero     0x1ffffda4      0x4  U3HB01_Hall_sensor.o [1]
      .bss                zero     0x1ffffda8      0x4  U3HB01_main.o [1]
      .bss                zero     0x1ffffdac      0x4  U3HB01_main.o [1]
      .bss                zero     0x1ffffdb0      0x4  U3HB01_main.o [1]
      .bss                zero     0x1ffffdb4      0x8  U3HB01_main.o [1]
      .bss                zero     0x1ffffdbc      0xc  U3HB01_main.o [1]
      .bss                zero     0x1ffffdc8     0x58  U3HB01_main.o [1]
      .bss                zero     0x1ffffe20     0x28  U3HB01_main.o [1]
      .bss                zero     0x1ffffe48     0x14  U3HB01_main.o [1]
      .bss                zero     0x1ffffe5c      0x4  U3HB01_main.o [1]
      .bss                zero     0x1ffffe60      0x4  U3HB01_main.o [1]
      .bss                zero     0x1ffffe64      0x4  U3HB01_main.o [1]
      .bss                zero     0x1ffffe68      0x4  U3HB01_main.o [1]
      .bss                zero     0x1ffffe6c      0x4  U3HB01_main.o [1]
      .bss                zero     0x1ffffe70      0x4  U3HB01_main.o [1]
      .bss                zero     0x1ffffe74      0x4  U3HB01_main.o [1]
      .bss                zero     0x1ffffe78      0x4  U3HB01_main.o [1]
      .bss                zero     0x1ffffe7c      0x4  U3HB01_main.o [1]
      .bss                zero     0x1ffffe80      0x4  U3HB01_main.o [1]
      .bss                zero     0x1ffffe84      0x4  U3HB01_main.o [1]
      .bss                zero     0x1ffffe88      0x4  U3HB01_main.o [1]
      .bss                zero     0x1ffffe8c      0x4  U3HB01_main.o [1]
      .bss                zero     0x1ffffe90      0x4  U3HB01_main.o [1]
      .bss                zero     0x1ffffe94      0x4  U3HB01_main.o [1]
      .bss                zero     0x1ffffe98      0x4  U3HB01_main.o [1]
      .bss                zero     0x1ffffe9c      0x4  U3HB01_main.o [1]
      .bss                zero     0x1ffffea0      0x4  U3HB01_main.o [1]
      .bss                zero     0x1ffffea4      0x8  U3HB01_main.o [1]
      .bss                zero     0x1ffffeac      0x8  U3HB01_main.o [1]
      .bss                zero     0x1ffffeb4      0x8  U3HB01_main.o [1]
      .bss                zero     0x1ffffebc      0x8  U3HB01_main.o [1]
      .bss                zero     0x1ffffec4     0x24  U3HB01_RotationControl.o [1]
      .bss                zero     0x1ffffee8     0x24  U3HB01_SolenoidControl.o [1]
      .bss                zero     0x1fffff0c      0x4  U3HB01_SolenoidControl.o [1]
      .bss                zero     0x1fffff10     0x1c  U3HB01_SPISysBus.o [1]
      .bss                zero     0x1fffff2c      0x4  U3HB01_SPISysBus.o [1]
      .bss                zero     0x1fffff30      0x4  U3HB01_SPISysBus.o [1]
      .bss                zero     0x1fffff34      0x4  U3HB01_WS2812B.o [1]
      .bss                zero     0x1fffff38     0x1c  U3HB01_WS2812B.o [1]
      .bss                zero     0x1fffff54   0x1128  U3HB01_WS2812B.o [1]
      .bss                zero     0x2000107c      0x4  U3HB01_WS2812B.o [1]
      .bss                zero     0x20001080   0x7a00  U3HB01_WS2812B.o [1]
      .bss                zero     0x20008a80      0x4  U3HB01_WS2812B.o [1]
      .bss                zero     0x20008a84      0x4  U3HB01_WS2812B.o [1]
      .bss                zero     0x20008a88      0x4  U3HB01_WS2812B.o [1]
      .bss                zero     0x20008a8c     0x5c  USB_composite_dev.o [1]
      .bss                zero     0x20008ae8      0x4  usb_device_descriptor.o [1]
      .bss                zero     0x20008aec     0x60  USB_virtual_com1.o [1]
      .bss                zero     0x20008b4c     0x60  USB_virtual_com2.o [1]
      .bss                zero     0x20008bac     0x10  krtc.o [3]
      .bss                zero     0x20008bbc     0x30  io_util.o [3]
      .bss                zero     0x20008bec     0x68  usb_composite.o [3]
      .bss                zero     0x20008c54     0xd8  usb_cdc.o [3]
      .bss                zero     0x20008d2c      0x8  psp_mstiq.o [3]
      .bss                zero     0x20008d34      0x4  mfs_globals.o [3]
      .bss                zero     0x20008d38     0x5c  usb_audio.o [3]
      .bss                zero     0x20008d94     0x40  usb_hid.o [3]
      .bss                zero     0x20008dd4     0x90  usb_msc.o [3]
      .bss                zero     0x20008e64    0x134  usb_phdc.o [3]
      .bss                zero     0x20008f98      0xc  usb_phdc.o [3]
      .bss                zero     0x20008fa4     0xb0  usb_dev.o [3]
      .bss                zero     0x20009054     0x10  usb_dev.o [3]
      .bss                zero     0x20009064      0x8  usb_msc_scsi.o [3]
      .bss                zero     0x2000906c     0x88  usb_msc_scsi.o [3]
      .bss                zero     0x200090f4      0x4  ehci_dev_main.o [3]
      .bss                zero     0x200090f8     0xd4  ehci_dev_main.o [3]
      .bss                zero     0x200091cc      0x2  freemaster_appcmd.o [1]
      .bss                zero     0x200091ce      0x2  freemaster_rec.o [1]
      .bss                zero     0x200091d0      0x2  freemaster_rec.o [1]
      .bss                zero     0x200091d2      0x2  freemaster_rec.o [1]
      .bss                zero     0x200091d4      0x2  freemaster_rec.o [1]
      .bss                zero     0x200091d6      0x2  freemaster_rec.o [1]
      .bss                zero     0x200091d8      0x2  freemaster_rec.o [1]
      .bss                zero     0x200091da      0x2  freemaster_tsa.o [1]
      .bss                zero     0x200091dc      0x2  freemaster_tsa.o [1]
      .bss                zero     0x200091de      0x2  K66BLEZ1_CAN.o [1]
      .bss                zero     0x200091e0      0x2  K66BLEZ1_SPI.o [1]
      .bss                zero     0x200091e2      0x2  U3HB01_main.o [1]
      .bss                zero     0x200091e4      0x2  USB_virtual_com1.o [1]
      .bss                zero     0x200091e6      0x2  USB_virtual_com1.o [1]
      .bss                zero     0x200091e8      0x2  USB_virtual_com2.o [1]
      .bss                zero     0x200091ea      0x2  USB_virtual_com2.o [1]
      .bss                zero     0x200091ec      0x1  App_logger.o [1]
      .bss                zero     0x200091ed      0x1  freemaster_appcmd.o [1]
      .bss                zero     0x200091ee      0x1  freemaster_appcmd.o [1]
      .bss                zero     0x200091ef      0x1  freemaster_appcmd.o [1]
      .bss                zero     0x200091f0      0x1  freemaster_rec.o [1]
      .bss                zero     0x200091f1      0x1  freemaster_rec.o [1]
      .bss                zero     0x200091f2      0x1  freemaster_rec.o [1]
      .bss                zero     0x200091f3      0x1  freemaster_rec.o [1]
      .bss                zero     0x200091f4      0x1  freemaster_scope.o [1]
      .bss                zero     0x200091f5      0x1  freemaster_serial.o [1]
      .bss                zero     0x200091f6      0x1  freemaster_serial.o [1]
      .bss                zero     0x200091f7      0x1  freemaster_serial.o [1]
      .bss                zero     0x200091f8      0x1  freemaster_serial.o [1]
      .bss                zero     0x200091f9      0x1  K66BLEZ1_DMA.o [1]
      .bss                zero     0x200091fa      0x1  U3HB01_DRV8305.o [1]
      .bss                zero     0x200091fb      0x1  U3HB01_SolenoidControl.o [1]
  KERNEL_DATA                      0x20009200      0x4  <Block>
    KERNEL_DATA-1                  0x20009200      0x4  <Init block>
      .kernel_data        inited   0x20009200      0x4  kernel_symbols.o [3]
                                 - 0x20009204  0x18e04


*******************************************************************************
*** INIT TABLE
***

          Address     Size
          -------     ----
Zero (__iar_zero_init3)
    1 destination range, total size 0x186bc:
          0x1fff0b40  0x186bc

Copy/lz77 (__iar_lz77_init_single3)
    1 source range, total size 0x26 (3% of destination):
          0x000300ae     0x26
    1 destination range, total size 0x400:
          0x1fff0000    0x400

Copy/lz77 (__iar_lz77_init_single3)
    1 source range, total size 0x2c4 (39% of destination):
          0x000300d4    0x2c4
    1 destination range, total size 0x701:
          0x1fff0400    0x701

Copy/lz77 (__iar_lz77_init_single3)
    1 source range, total size 0x3 (75% of destination):
          0x00030398      0x3
    1 destination range, total size 0x4:
          0x20009200      0x4



*******************************************************************************
*** MODULE SUMMARY
***

    Module                     ro code  ro data  rw data
    ------                     -------  -------  -------
D:\Embedded\Projects\Universal3PHalfBridgeController\GitHub\Universal3PHalfBridgeController\K66_Firmware\IAR_proj\OUT\Debug\Obj: [1]
    App_logger.o                 1 636      428   14 745
    CRC_utils.o                     64      512
    Filters.o                      202
    FreeMaster_vars.o               20    2 806
    Init_Pins.o                    236    2 000
    K66BLEZ1_ADC.o               1 168       48       72
    K66BLEZ1_CAN.o                 126                42
    K66BLEZ1_DMA.o                 884                 1
    K66BLEZ1_FTM.o                 720
    K66BLEZ1_INIT_SYS.o            520
    K66BLEZ1_MKW40_Channel.o       276                 4
    K66BLEZ1_SPI.o                 920       48      158
    K66BLEZ1_VBAT_RAM.o             60
    LED_control.o                  468                16
    MFS_Shell.o                     36      366
    MFS_man.o                      524      500       16
    MFS_test.o                   3 296    1 660
    MKW40_Channel.o                 40               128
    Main.o                         148      460      160
    MonitorVT100.o               3 796    1 928    8 048
    Monitor_usb_drv.o              332       74       48
    Parameters.o                 4 444      862        4
    RTOS_utils.o                   240
    Supervisor_task.o              448      708
    Task_FreeMaster.o              224                 4
    U3HB01_BLDC.o                  168
    U3HB01_CAN.o                                      16
    U3HB01_DRV8305.o             1 128      913      117
    U3HB01_ExtEncoder.o            316               264
    U3HB01_FreemasterCmdMan.o      136                 4
    U3HB01_Hall_BLDC.o           1 076      120
    U3HB01_Hall_sensor.o           776       72      212
    U3HB01_Params.o                       1 339
    U3HB01_Pins.o                   44
    U3HB01_RotationControl.o       736                36
    U3HB01_SPISysBus.o             488                36
    U3HB01_SolenoidControl.o       384                41
    U3HB01_WS2812B.o             2 000      256   41 532
    U3HB01_main.o                  588        8      286
    U3HB01_monitor.o               400      360
    USB_composite_dev.o            324                92
    USB_debug.o                     32
    USB_virtual_com1.o           1 348        3      108
    USB_virtual_com2.o           1 348        3      108
    WatchDogCtrl.o                  96
    freemaster_appcmd.o            464                89
    freemaster_os.o                132
    freemaster_protocol.o          670       16
    freemaster_rec.o             1 376            32 084
    freemaster_scope.o             216                41
    freemaster_serial.o            756                80
    freemaster_tsa.o               492                 8
    usb_device_descriptor.o        664      276      704
    ----------------------------------------------------
    Total:                      36 986   15 766   99 304

command line: [2]
    ----------------------------------------------------
    Total:

MQX_LIBRARY_O3.a: [3]
    Sdelay.o                        22
    adapter_mqx.o                  272
    boot.o                          76
    bsp_cm.o                       500        1        1
    comp.o                          28
    device_ehci_interface.o                  80
    dir_read.o                     824       52
    dispatch.o                     752
    ehci_dev_main.o              4 064               216
    esdhc.o                      5 180
    esdhc_mk65.o                    26
    hwtimer.o                      278
    hwtimer_kinetis.o                4
    hwtimer_systick.o              288       24
    idletask.o                      68
    init_bsp.o                     408                72
    init_esdhc.o                             12
    init_gpio.o                    264
    init_hw.o                        4
    init_sci.o                               72
    init_sdcard.o                            16
    inittask.o                     112
    int.o                          760
    int_inst.o                      44
    int_kisr.o                     112
    int_vtab.o                      32
    io_dopr.o                    4 628
    io_fclos.o                      52
    io_feof.o                       18
    io_ferr.o                       12
    io_fflsh.o                      62
    io_fgetc.o                      64
    io_fgetl.o                     150
    io_fgets.o                      40
    io_fopen.o                     152
    io_fp.o                      4 344
    io_fputc.o                      58
    io_fscan.o                      58
    io_fseek.o                     216
    io_fung.o                       38
    io_ghand.o                      64
    io_init.o                       52
    io_inst.o                       36
    io_instx.o                     584
    io_ioctl.o                      56
    io_pntf.o                       44
    io_read.o                       90
    io_scanl.o                   1 780
    io_sinit.o                      88
    io_spr.o                        90
    io_sscan.o                      18
    io_util.o                    1 120                48
    io_vpr.o                        36
    io_write.o                      34
    kernel_symbols.o                          3        4
    kinetis_mpu.o                   20
    klog.o                         484
    krtc.o                         136                16
    lwevent.o                    1 960
    lwlog.o                        304
    lwmem.o                      3 912
    lwmsgq.o                     1 544
    lwsem.o                      1 680
    mfs_attribute.o                236
    mfs_cache.o                  1 412
    mfs_chain.o                    428
    mfs_cluster.o                  872
    mfs_delete.o                   206
    mfs_dir_chain.o              1 686
    mfs_dir_entry.o              3 322
    mfs_directory.o              1 162
    mfs_fat.o                      844
    mfs_find.o                   1 058
    mfs_fio.o                      648
    mfs_flush.o                     92
    mfs_format.o                 1 960
    mfs_globals.o                                      4
    mfs_handle.o                   242
    mfs_ioctl.o                    900
    mfs_lfn.o                    3 940
    mfs_misc.o                   1 944
    mfs_mount.o                  1 138
    mfs_open.o                     806
    mfs_parse.o                  1 212
    mfs_read.o                     548
    mfs_rename.o                   632
    mfs_rw.o                       490
    mfs_search.o                 1 084
    mfs_time.o                     102
    mfs_unicode.o                  738
    mfs_valdev.o                   128
    mfs_write.o                    798
    mqx.o                        1 424       96      152
    mqx_init.o                               56
    mqx_main.o                      20
    msg.o                        1 120
    msgpool.o                      448
    msgq.o                         336
    mutex.o                      2 268
    nvic.o                         180
    part_mgr.o                   2 738
    psp_iinit.o                     18
    psp_mat1.o                     142
    psp_mat2.o                     226
    psp_mat3.o                      52
    psp_msti.o                      88
    psp_mstiq.o                    100                 8
    psp_seti.o                      28
    psp_tiad.o                      68
    psp_tims.o                     156
    psp_tinm.o                      48
    psp_tiol.o                      38
    psp_tisu.o                      60
    psp_tius.o                     156
    psp_tkti.o                     128
    queue.o                        188
    sc_irdyq.o                     344
    sched.o                        760
    sdcard.o                       792
    sdcard_esdhc.o               1 344
    serl_int.o                   1 924
    serl_int_kuart.o               472
    serl_mk65.o                     60
    serl_pol_kuart.o             1 308
    sh_cd.o                        516
    sh_cmdlist.o                   152
    sh_copy.o                      796
    sh_create.o                    552
    sh_del.o                       468
    sh_df.o                        468
    sh_di.o                      2 356
    sh_dir.o                       600
    sh_disect.o                    720
    sh_exit.o                      104
    sh_format.o                    760       32       20
    sh_help.o                      376
    sh_mkdir.o                     476
    sh_pwd.o                       232
    sh_read.o                    1 048
    sh_readtest.o               10 752        4
    sh_rename.o                    652
    sh_rmdir.o                     520
    sh_sh.o                        400
    sh_type.o                      516
    sh_util.o                      748
    sh_write.o                   1 200
    sh_writetest.o                 860
    shell.o                        704
    stack_bu.o                      88
    stack_de.o                       2
    stack_st.o                       6
    strnlen.o                       26
    support.o                       46
    task.o                       5 240
    taskq.o                      1 416
    time.o                       3 552
    usb_audio.o                  2 104                92
    usb_cdc.o                    1 092               216
    usb_cdc_pstn.o                 412       16       40
    usb_class.o                    130       14       36
    usb_composite.o                782               104
    usb_dev.o                    1 456               192
    usb_dev_bsp.o                  484
    usb_framework.o                942       37       92
    usb_hid.o                      620                64
    usb_msc.o                    2 952               144
    usb_msc_scsi.o               2 104       14      180
    usb_phdc.o                   1 116               320
    vectors.o                        2    1 079    1 024
    ----------------------------------------------------
    Total:                     134 352    1 608    3 045

dl7M_tlf.a: [4]
    abs.o                            8
    errno.o                         12        1        4
    isdigit.o                       10
    isgraph.o                       48
    isxxx.o                         60
    localeconv.o                   108       54      136
    rand.o                         224       55      140
    setlocale.o                     24       46      116
    srand.o                         32
    strncmp.o                       44
    strtol.o                         6
    tolower.o                       20
    toupper.o                       24
    xlocale_c.o                     90
    xstoflt.o                      440
    xstol.o                        136
    xstopfx.o                      290
    xstoul.o                       404
    xstoxflt.o                     536
    xtls.o                           2
    ----------------------------------------------------
    Total:                       2 518      156      396

m7M_tls.a: [5]
    DblAdd.o                       232
    DblCmpEq.o                      32
    DblCmpGe.o                      46
    DblCmpLe.o                      46
    DblDiv.o                       598
    DblMul.o                       418
    DblSub.o                       384
    DblToFlt.o                     144
    DblToI32.o                      76
    FltToDbl.o                      78
    I32ToDbl.o                      48
    fpinit_M.o                      34
    log.o                           18
    modf.o                         192
    setjmp.o                        44
    strtod.o                        14
    xdnorm.o                        68
    xdscale.o                      276
    xdtento.o                      512
    xdunscal.o                      86
    xlog.o                         744
    xstod.o                        374
    ----------------------------------------------------
    Total:                       4 464

rt7M_tl.a: [6]
    ABImemclr.o                      6
    ABImemclr4.o                     6
    ABImemcpy_unaligned.o          118
    ABImemset.o                    102
    ABImemset48.o                   58
    I64DivMod.o                    306
    I64DivZer.o                      2
    I64Shl.o                        34
    cmain.o                         26
    cstartup_M.o                    12
    data_init.o                     40
    lz77_init_single.o             120
    memchr.o                        88
    memcmp_unaligned.o              98
    strchr.o                        22
    strcmp_unaligned.o              66
    strcpy_unaligned.o              68
    strlen.o                        54
    strncpy_unaligned.o            108
    zero_init3.o                    64
    ----------------------------------------------------
    Total:                       1 398

    Gaps                           114       90      167
    Linker created                           68
--------------------------------------------------------
    Grand Total:               179 832   17 692  102 912


*******************************************************************************
*** ENTRY LIST
***

Entry                      Address    Size  Type      Object
-----                      -------    ----  ----      ------
.iar.init_table$$Base   0x0003006c           --   Gb  - Linker created -
.iar.init_table$$Limit  0x000300ac           --   Gb  - Linker created -
?main                   0x00002fb9          Code  Gb  cmain.o [6]
ADC_Kernel_Isr          0x0001332d    0x3a  Code  Lc  K66BLEZ1_ADC.o [1]
ADC_calibr_config_start
                        0x000136ef    0x5c  Code  Gb  K66BLEZ1_ADC.o [1]
ADC_calibrating         0x0001367b    0x74  Code  Gb  K66BLEZ1_ADC.o [1]
ADC_config              0x0001365b    0x20  Code  Lc  K66BLEZ1_ADC.o [1]
ADC_config_DMA_MUX      0x000135f9    0x1e  Code  Gb  K66BLEZ1_ADC.o [1]
ADC_config_start_DMA    0x00013617    0x2a  Code  Gb  K66BLEZ1_ADC.o [1]
ADC_start_DMA           0x0001345d   0x19c  Code  Lc  K66BLEZ1_ADC.o [1]
ADC_switch_on_all       0x00013641    0x1a  Code  Gb  K66BLEZ1_ADC.o [1]
AppLogg_init            0x00009f0d    0x2a  Code  Gb  App_logger.o [1]
AppLogg_monitor_output  0x0000a119   0x1f0  Code  Gb  App_logger.o [1]
BCD2ToBYTE              0x0000b33d    0x18  Code  Lc  MonitorVT100.o [1]
BLDC_Free_Run           0x000132a1    0x36  Code  Gb  U3HB01_BLDC.o [1]
BLDC_break              0x000132d9    0x38  Code  Gb  U3HB01_BLDC.o [1]
BLDC_commutation_by_hall_sens
                        0x00012be7    0x4a  Code  Gb  U3HB01_Hall_BLDC.o [1]
BLDC_force_break        0x00012b6b    0x6e  Code  Gb  U3HB01_Hall_BLDC.o [1]
BLDC_overload_observer  0x00012c31   0x1b4  Code  Gb  U3HB01_Hall_BLDC.o [1]
BLDC_set_PWM_sync_signal
                        0x00012bd9     0xe  Code  Gb  U3HB01_Hall_BLDC.o [1]
BLDC_start_rotation     0x00012a43   0x128  Code  Gb  U3HB01_Hall_BLDC.o [1]
BYTE_SIZES              0x1fff0894    0x14  Data  Lc  sh_format.o [3]
CFMPROTROM$$Base        0x00000400           --   Gb  - Linker created -
CFMPROTROM$$Limit       0x00000414           --   Gb  - Linker created -
CHECKSUM$$Base          0x000fffd0           --   Gb  - Linker created -
CHECKSUM$$Limit         0x000fffd4           --   Gb  - Linker created -
ClockConfigurationID    0x1fff0b00     0x1  Data  Lc  bsp_cm.o [3]
Cmd_man_func            0x1ffffd84     0x4  Data  Lc  U3HB01_FreemasterCmdMan.o [1]
Composite_USB_device_init
                        0x000163d1    0x9a  Code  Gb  USB_composite_dev.o [1]
Config_DMA_for_SPI_RX   0x00003293    0xcc  Code  Gb  K66BLEZ1_DMA.o [1]
Config_DMA_for_SPI_TX   0x000031c7    0xcc  Code  Gb  K66BLEZ1_DMA.o [1]
Config_pin              0x00002fd5    0x8c  Code  Gb  Init_Pins.o [1]
Conv_ms_to_ticks        0x0000f2bd    0x1a  Code  Gb  RTOS_utils.o [1]
Convert_H_S_V_to_RGB    0x0001682f   0x116  Code  Gb  U3HB01_WS2812B.o [1]
Cpu_SetOperationMode    0x00005eed   0x10a  Code  Gb  bsp_cm.o [3]
Create_CANTX_control_sync_obj
                        0x00015591    0x52  Code  Lc  K66BLEZ1_CAN.o [1]
DMA_ADC_Kernel_Isr      0x00013367    0xf6  Code  Lc  K66BLEZ1_ADC.o [1]
DMA_SPI_MKW40_rx_isr    0x00015d81    0x2e  Code  Lc  K66BLEZ1_MKW40_Channel.o [1]
DMA_SPI_SYSBUS_rx_isr   0x000108ed    0x2e  Code  Lc  U3HB01_SPISysBus.o [1]
DRV8305_Gates_disable   0x00012f43    0x10  Code  Gb  U3HB01_DRV8305.o [1]
DRV8305_Gates_enable    0x00012f33    0x10  Code  Gb  U3HB01_DRV8305.o [1]
DRV8305_calibrate       0x00013147    0xa8  Code  Gb  U3HB01_DRV8305.o [1]
DRV8305_calibrate_callback
                        0x00012f53    0x42  Code  Lc  U3HB01_DRV8305.o [1]
DRV8305_clear_currents_acc
                        0x00012f95     0x8  Code  Gb  U3HB01_DRV8305.o [1]
DRV8305_currents_measuring
                        0x00012fa1   0x1a6  Code  Lc  U3HB01_DRV8305.o [1]
DRV8305_get_map         0x00012e3b     0xe  Code  Gb  U3HB01_DRV8305.o [1]
DRV8305_get_shunt_currents
                        0x00012f9d     0x4  Code  Gb  U3HB01_DRV8305.o [1]
DRV8305_init            0x00012e1d    0x1e  Code  Gb  U3HB01_DRV8305.o [1]
DRV8305_map             0x0002f600    0xc0  Data  Gb  U3HB01_DRV8305.o [1]
DRV8305_read_all        0x00012eb7    0x3e  Code  Gb  U3HB01_DRV8305.o [1]
DRV8305_read_all::__FUNCTION__
                        0x0002f5a8    0x14  Data  Lc  U3HB01_DRV8305.o [1]
DRV8305_read_register   0x00012e49    0x38  Code  Gb  U3HB01_DRV8305.o [1]
DRV8305_regs            0x1ffffc20    0x18  Data  Gb  U3HB01_DRV8305.o [1]
DRV8305_write_def_all   0x00012ef5    0x3e  Code  Gb  U3HB01_DRV8305.o [1]
DRV8305_write_def_all::__FUNCTION__
                        0x0002f5d0    0x18  Data  Lc  U3HB01_DRV8305.o [1]
DRV8305_write_register  0x00012e81    0x36  Code  Gb  U3HB01_DRV8305.o [1]
DS_cbl                  0x1fffdaec     0x4  Data  Lc  K66BLEZ1_MKW40_Channel.o [1]
DS_cbl                  0x1fffff2c     0x4  Data  Lc  U3HB01_SPISysBus.o [1]
Delay_m7                0x00000421          Code  Gb  Sdelay.o [3]
Display_menu            0x0000ae2b    0x6e  Code  Gb  MonitorVT100.o [1]
Display_params_func     0x0000bfd5    0xf0  Code  Gb  Parameters.o [1]
Display_params_menu     0x0000be29   0x1ac  Code  Gb  Parameters.o [1]
Do_DRV8305_diagnostic   0x00024321   0x190  Code  Lc  U3HB01_monitor.o [1]
Do_MFS_test             0x0000b679   0x1b6  Code  Lc  MonitorVT100.o [1]
Do_Params_editor        0x0000be0b    0x1e  Code  Gb  Parameters.o [1]
Do_Reset                0x0000bb31     0x8  Code  Lc  MonitorVT100.o [1]
Do_Shell                0x0000b82f    0x66  Code  Lc  MonitorVT100.o [1]
Do_VBAT_RAM_diagnostic  0x0000b8a1    0x92  Code  Lc  MonitorVT100.o [1]
Do_date_time_set        0x0000b355   0x2aa  Code  Lc  MonitorVT100.o [1]
Do_malloc_test          0x0000b9a9    0xf8  Code  Lc  MonitorVT100.o [1]
Do_show_event_log       0x0000b605    0x10  Code  Lc  MonitorVT100.o [1]
Do_watchdog_test        0x0000b941    0x52  Code  Lc  MonitorVT100.o [1]
Edit_func               0x0000c1d9   0x1cc  Code  Gb  Parameters.o [1]
Edit_integer_hex_val    0x0000b2d9    0x54  Code  Gb  MonitorVT100.o [1]
Edit_integer_val        0x0000b287    0x52  Code  Gb  MonitorVT100.o [1]
Enter_special_code      0x0000af71    0x4e  Code  Gb  MonitorVT100.o [1]
Entry_check             0x0000ac65    0x4c  Code  Lc  MonitorVT100.o [1]
Execute_menu_func       0x0000afbf    0x94  Code  Gb  MonitorVT100.o [1]
Execute_param_func      0x0000c85d    0x28  Code  Gb  Parameters.o [1]
ExtEnc_IRQHandler       0x00013845    0x12  Code  Lc  U3HB01_ExtEncoder.o [1]
ExtEnc_Read_angle       0x000138bf    0x86  Code  Gb  U3HB01_ExtEncoder.o [1]
ExtEnc_init             0x00013857    0x2e  Code  Gb  U3HB01_ExtEncoder.o [1]
FLASHX_POOL$$Base       0x00031000           --   Gb  - Linker created -
FLASHX_POOL$$Limit      0x00031001           --   Gb  - Linker created -
FMSTR_AbortRec          0x000143c1     0xa  Code  Lc  freemaster_rec.o [1]
FMSTR_AppCmdAck         0x00014a5b    0x12  Code  Gb  freemaster_appcmd.o [1]
FMSTR_CheckMemSpace     0x00014d2b    0x20  Code  Lc  freemaster_tsa.o [1]
FMSTR_CheckTsaSpace     0x00014d4b   0x136  Code  Gb  freemaster_tsa.o [1]
FMSTR_Compare16S        0x00014731    0x1a  Code  Lc  freemaster_rec.o [1]
FMSTR_Compare16U        0x0001474d    0x16  Code  Lc  freemaster_rec.o [1]
FMSTR_Compare32S        0x00014765    0x16  Code  Lc  freemaster_rec.o [1]
FMSTR_Compare32U        0x0001477d    0x16  Code  Lc  freemaster_rec.o [1]
FMSTR_Compare8S         0x000146fd    0x1a  Code  Lc  freemaster_rec.o [1]
FMSTR_Compare8U         0x00014719    0x16  Code  Lc  freemaster_rec.o [1]
FMSTR_CopyFromBuffer    0x00014ebf    0x18  Code  Gb  freemaster_os.o [1]
FMSTR_CopyFromBufferWithMask
                        0x00014ed7    0x2e  Code  Gb  freemaster_os.o [1]
FMSTR_CopyMemory        0x00014e81    0x16  Code  Gb  freemaster_os.o [1]
FMSTR_CopyToBuffer      0x00014e97    0x28  Code  Gb  freemaster_os.o [1]
FMSTR_FindAppCmdCallIndex
                        0x00014a35    0x26  Code  Lc  freemaster_appcmd.o [1]
FMSTR_GetAppCmd         0x00014a6d    0x18  Code  Gb  freemaster_appcmd.o [1]
FMSTR_GetAppCmdData     0x00014a85    0x3a  Code  Gb  freemaster_appcmd.o [1]
FMSTR_GetAppCmdRespData
                        0x000149e1    0x54  Code  Gb  freemaster_appcmd.o [1]
FMSTR_GetAppCmdStatus   0x00014997    0x4a  Code  Gb  freemaster_appcmd.o [1]
FMSTR_GetBoardInfo      0x0001504d    0x5e  Code  Gb  freemaster_protocol.o [1]
FMSTR_GetRecBuff        0x000146bd    0x3c  Code  Gb  freemaster_rec.o [1]
FMSTR_GetRecBuffSize    0x0001468b     0x6  Code  Gb  freemaster_rec.o [1]
FMSTR_GetRecStatus      0x00014669    0x22  Code  Gb  freemaster_rec.o [1]
FMSTR_GetStringLen      0x00014d0b    0x20  Code  Gb  freemaster_tsa.o [1]
FMSTR_GetTsaInfo        0x00014cc9    0x42  Code  Gb  freemaster_tsa.o [1]
FMSTR_Init              0x00014f19    0x22  Code  Gb  freemaster_protocol.o [1]
FMSTR_InitAppCmds       0x0001490d    0x2c  Code  Gb  freemaster_appcmd.o [1]
FMSTR_InitRec           0x000143ad    0x14  Code  Gb  freemaster_rec.o [1]
FMSTR_InitScope         0x000154b9     0x2  Code  Gb  freemaster_scope.o [1]
FMSTR_InitSerial        0x00015459    0x22  Code  Gb  freemaster_serial.o [1]
FMSTR_InitTsa           0x00014c95    0x14  Code  Gb  freemaster_tsa.o [1]
FMSTR_IsInRecBuffer     0x00014691    0x2c  Code  Gb  freemaster_rec.o [1]
FMSTR_Listen            0x00015249    0x14  Code  Lc  freemaster_serial.o [1]
FMSTR_Poll              0x000154a5     0x8  Code  Gb  freemaster_serial.o [1]
FMSTR_Process_OS_IO     0x000151bd    0x8c  Code  Lc  freemaster_serial.o [1]
FMSTR_Process_OS_IO::tx_char
                        0x200091f8     0x1  Data  Lc  freemaster_serial.o [1]
FMSTR_ProtocolDecoder   0x00014f3b   0x112  Code  Gb  freemaster_protocol.o [1]
FMSTR_ReadMem           0x000150b1    0x48  Code  Gb  freemaster_protocol.o [1]
FMSTR_ReadScope         0x00015545    0x3e  Code  Gb  freemaster_scope.o [1]
FMSTR_ReadVar           0x000150f9    0x38  Code  Gb  freemaster_protocol.o [1]
FMSTR_Recorder          0x00014793    0x14  Code  Gb  freemaster_rec.o [1]
FMSTR_Recorder2         0x000147a7   0x116  Code  Lc  freemaster_rec.o [1]
FMSTR_Rx                0x00015345   0x114  Code  Gb  freemaster_serial.o [1]
FMSTR_SendError         0x0001525d    0x10  Code  Lc  freemaster_serial.o [1]
FMSTR_SendResponse      0x0001526d    0x5e  Code  Gb  freemaster_serial.o [1]
FMSTR_SetUpRec          0x000143cb   0x1dc  Code  Gb  freemaster_rec.o [1]
FMSTR_SetUpScope        0x000154bb    0x8a  Code  Gb  freemaster_scope.o [1]
FMSTR_StartRec          0x000145d3    0x6a  Code  Gb  freemaster_rec.o [1]
FMSTR_StopRec           0x0001463d    0x2c  Code  Gb  freemaster_rec.o [1]
FMSTR_StoreAppCmd       0x00014939    0x5e  Code  Gb  freemaster_appcmd.o [1]
FMSTR_StrLen            0x000151a1    0x16  Code  Gb  freemaster_protocol.o [1]
FMSTR_TriggerRec        0x000145a7    0x2c  Code  Gb  freemaster_rec.o [1]
FMSTR_TsaGetTable       0x00014add    0x2a  Code  Gb  Task_FreeMaster.o [1]
FMSTR_TsaGetTable_dynamic_tsa
                        0x00014ca9    0x14  Code  Gb  freemaster_tsa.o [1]
FMSTR_TsaGetTable_tbl_vars
                        0x00014f05    0x14  Code  Gb  FreeMaster_vars.o [1]
FMSTR_TsaGetTable_tbl_vars::fmstr_tsatable
                        0x0002ccc4   0x4e0  Data  Lc  FreeMaster_vars.o [1]
FMSTR_Tx                0x000152cb    0x7a  Code  Gb  freemaster_serial.o [1]
FMSTR_WriteMem          0x00015131    0x38  Code  Gb  freemaster_protocol.o [1]
FMSTR_WriteMemMask      0x00015169    0x38  Code  Gb  freemaster_protocol.o [1]
FMSTR_init_OS_interface
                        0x000151b9     0x4  Code  Lc  freemaster_serial.o [1]
FTM1_FTM2_init_3ph_hal_sens_measl
                        0x00013bef    0x2c  Code  Gb  U3HB01_Hall_sensor.o [1]
FTM1_FTM2_init_hall_sens_meas
                        0x000128ff    0xa2  Code  Gb  K66BLEZ1_FTM.o [1]
FTM3_init_motor_PWM     0x000127db    0xb2  Code  Gb  K66BLEZ1_FTM.o [1]
FTM3_set_CnV            0x0001288d    0x1a  Code  Gb  K66BLEZ1_FTM.o [1]
FTM_2                   0x1fff05c4     0x4  Data  Lc  U3HB01_Hall_sensor.o [1]
FTM_init_PWM_DMA        0x00012719    0xc2  Code  Gb  K66BLEZ1_FTM.o [1]
Find_param_by_abbrev    0x0000c827    0x30  Code  Gb  Parameters.o [1]
Find_str_center         0x0000b0fd    0x1e  Code  Gb  MonitorVT100.o [1]
Frmstr_Set_recorder_smpls_src
                        0x00014b07    0x68  Code  Gb  Task_FreeMaster.o [1]
GetFirmwareDescr        0x0000e0f3     0x4  Code  Gb  U3HB01_main.o [1]
Get_CRC_of_block        0x00011be9    0x38  Code  Gb  CRC_utils.o [1]
Get_Hall_state_from_mask
                        0x00013c1d     0x8  Code  Gb  U3HB01_Hall_sensor.o [1]
Get_hall_state          0x00013bd7    0x18  Code  Gb  U3HB01_Hall_sensor.o [1]
Get_mn_caption          0x0000bd67    0x3a  Code  Lc  Parameters.o [1]
Get_mn_name             0x0000bda1    0x36  Code  Gb  Parameters.o [1]
Get_mn_prevlev          0x0000bdd7    0x34  Code  Lc  Parameters.o [1]
Get_modulation_from_percent
                        0x000128a9    0x56  Code  Gb  K66BLEZ1_FTM.o [1]
Get_reference_time      0x0000f265    0x22  Code  Gb  RTOS_utils.o [1]
Get_string              0x0000aef3    0x7e  Code  Lc  MonitorVT100.o [1]
Goto_main_menu          0x0000b053    0x26  Code  Gb  MonitorVT100.o [1]
Goto_to_edit_param      0x0000c0c9   0x10c  Code  Lc  Parameters.o [1]
Hall_sensor_kernel_isr  0x00013981   0x256  Code  Gb  U3HB01_Hall_sensor.o [1]
Init_DMA                0x000030c1    0xe6  Code  Gb  K66BLEZ1_DMA.o [1]
Init_MK66FN2M0VLQ18_K66BLEZ1
                        0x00001431    0x26  Code  Gb  K66BLEZ1_INIT_SYS.o [1]
Init_MKW40_SPI_DMA      0x00015daf    0x5c  Code  Gb  K66BLEZ1_MKW40_Channel.o [1]
Init_MKW40_channel      0x00015e7d    0x18  Code  Gb  K66BLEZ1_MKW40_Channel.o [1]
Init_SYSBUS_SPI_DMA     0x0001091b    0x5c  Code  Gb  U3HB01_SPISysBus.o [1]
Init_cpu                0x00001457   0x154  Code  Gb  K66BLEZ1_INIT_SYS.o [1]
Init_mfs                0x000160e9   0x20c  Code  Gb  MFS_man.o [1]
Init_mfs::__FUNCTION__  0x0002db90     0xc  Data  Lc  MFS_man.o [1]
Init_pins               0x00003061    0x38  Code  Gb  Init_Pins.o [1]
Install_and_enable_isr  0x0000f287    0x1c  Code  Gb  RTOS_utils.o [1]
Install_and_enable_kernel_isr
                        0x0000f2a3    0x1a  Code  Gb  RTOS_utils.o [1]
K66BLEZ1_VBAT_RAM_sign_data
                        0x0000ef3b    0x16  Code  Gb  K66BLEZ1_VBAT_RAM.o [1]
K66BLEZ1_VBAT_RAM_validation
                        0x0000ef19    0x22  Code  Gb  K66BLEZ1_VBAT_RAM.o [1]
K66BLEZ1_pins_conf      0x0002d1a4   0x7d0  Data  Gb  Init_Pins.o [1]
KERNEL_DATA$$Base       0x20009200           --   Gb  - Linker created -
KERNEL_DATA$$Limit      0x20009204           --   Gb  - Linker created -
LEDS_state_automat      0x0000f0cd   0x130  Code  Gb  LED_control.o [1]
LED_BLINK               0x0002da18    0x18  Data  Gb  Main.o [1]
LOG                     0x0000a0a3    0x3a  Code  Gb  App_logger.o [1]
LOGs                    0x0000a0dd    0x3c  Code  Gb  App_logger.o [1]
Lookup_menu_item        0x0000ae99    0x5a  Code  Lc  MonitorVT100.o [1]
MDC01_Solenoid_OFF      0x00010b27    0x12  Code  Lc  U3HB01_SolenoidControl.o [1]
MDC01_Solenoid_ON       0x00010ae1    0x46  Code  Lc  U3HB01_SolenoidControl.o [1]
MENU_DMC01              0x0002f89c     0xc  Data  Gb  U3HB01_monitor.o [1]
MENU_DMC01_ITEMS        0x0002f86c    0x30  Data  Gb  U3HB01_monitor.o [1]
MENU_MAIN               0x0002ec94     0xc  Data  Gb  MonitorVT100.o [1]
MENU_MAIN_ITEMS         0x0002ec1c    0x78  Data  Gb  MonitorVT100.o [1]
MENU_PARAMETERS         0x0002eca0     0xc  Data  Gb  MonitorVT100.o [1]
MENU_SPEC               0x0002ed00     0xc  Data  Gb  MonitorVT100.o [1]
MENU_SPEC_ITEMS         0x0002ecac    0x54  Data  Gb  MonitorVT100.o [1]
MFS_Bad_clusters        0x0002097b    0x5e  Code  Gb  mfs_cluster.o [3]
MFS_Change_current_dir  0x0002145f    0x78  Code  Gb  mfs_directory.o [3]
MFS_Check_dir_exist     0x000214d7    0x40  Code  Gb  mfs_directory.o [3]
MFS_Clear_cluster       0x0002093d    0x3e  Code  Gb  mfs_cluster.o [3]
MFS_Close_Device        0x0001a271    0x42  Code  Gb  mfs_open.o [3]
MFS_Close_file          0x0001a163    0x3e  Code  Gb  mfs_open.o [3]
MFS_Create_directory_entry
                        0x0001f0ed   0x45a  Code  Gb  mfs_dir_entry.o [3]
MFS_Create_drive        0x00017bbb    0x50  Code  Gb  mfs_misc.o [3]
MFS_Create_entry_slave  0x0001f549   0x522  Code  Gb  mfs_dir_entry.o [3]
MFS_Create_handle       0x0002066b    0x54  Code  Gb  mfs_handle.o [3]
MFS_Create_subdir       0x000211a1   0x188  Code  Gb  mfs_directory.o [3]
MFS_Decrement_free_clusters
                        0x0002076f    0x12  Code  Gb  mfs_cluster.o [3]
MFS_Default_Format      0x00022419    0x66  Code  Gb  mfs_format.o [3]
MFS_Delete_file         0x00021ba1    0xce  Code  Gb  mfs_delete.o [3]
MFS_Destroy_drive       0x00017c0b    0x22  Code  Gb  mfs_misc.o [3]
MFS_Destroy_handle      0x000206bf    0x28  Code  Gb  mfs_handle.o [3]
MFS_Dirname_valid       0x0001df4d    0xca  Code  Gb  mfs_parse.o [3]
MFS_Error_text          0x00017e01   0x186  Code  Gb  mfs_misc.o [3]
MFS_Expand_dotfile      0x0001dd09   0x244  Code  Gb  mfs_parse.o [3]
MFS_Extend_chain        0x00020845    0xf8  Code  Gb  mfs_cluster.o [3]
MFS_File_test_data      0x000270a8  0x2714  Data  Gb  sh_readtest.o [3]
MFS_File_test_data_size
                        0x0002ff08     0x4  Data  Gb  sh_readtest.o [3]
MFS_Find_directory      0x0001991d    0xea  Code  Gb  mfs_search.o [3]
MFS_Find_directory_entry
                        0x00019677   0x2a6  Code  Gb  mfs_search.o [3]
MFS_Find_handle         0x00020715    0x48  Code  Gb  mfs_handle.o [3]
MFS_Find_handle_new     0x000206e7    0x2e  Code  Gb  mfs_handle.o [3]
MFS_Find_unused_cluster_from
                        0x00020781    0x52  Code  Gb  mfs_cluster.o [3]
MFS_Flush_Device        0x0001a4d9    0x5c  Code  Gb  mfs_flush.o [3]
MFS_Format              0x00021ee9   0x526  Code  Gb  mfs_format.o [3]
MFS_Get_current_dir     0x0002142f    0x30  Code  Gb  mfs_directory.o [3]
MFS_Get_date_time       0x00021b3b    0x32  Code  Gb  mfs_time.o [3]
MFS_Get_disk_free_space
                        0x00020a05    0x78  Code  Gb  mfs_cluster.o [3]
MFS_Get_disk_free_space_internal
                        0x00020a7d    0x48  Code  Gb  mfs_cluster.o [3]
MFS_Get_file_attributes
                        0x00021a4f    0x50  Code  Gb  mfs_attribute.o [3]
MFS_Get_volume          0x000215b5    0x76  Code  Gb  mfs_directory.o [3]
MFS_Increment_dir_index
                        0x0001fa75    0x62  Code  Gb  mfs_dir_entry.o [3]
MFS_Increment_free_clusters
                        0x0002075d    0x12  Code  Gb  mfs_cluster.o [3]
MFS_Is_dot_directory    0x0001e04f    0x24  Code  Gb  mfs_parse.o [3]
MFS_Last_cluster        0x000209dd    0x28  Code  Gb  mfs_cluster.o [3]
MFS_Mount_drive_internal
                        0x00020d2d   0x37c  Code  Gb  mfs_mount.o [3]
MFS_Open_Device         0x0001a1a1    0xd0  Code  Gb  mfs_open.o [3]
MFS_Open_file           0x00019f8d   0x1d6  Code  Gb  mfs_open.o [3]
MFS_Parse_Out_Device_Name
                        0x00017dc3    0x3e  Code  Gb  mfs_misc.o [3]
MFS_Parse_next_filename
                        0x0001e017    0x38  Code  Gb  mfs_parse.o [3]
MFS_Parse_pathname      0x0001dc4d    0xbc  Code  Gb  mfs_parse.o [3]
MFS_Put_fat             0x00023a2d   0x1c0  Code  Gb  mfs_fat.o [3]
MFS_Read                0x0001a2b5   0x224  Code  Gb  mfs_read.o [3]
MFS_Read_device_sectors
                        0x0001ff33    0xa0  Code  Gb  mfs_rw.o [3]
MFS_Read_directory_sector
                        0x000195cb    0x7e  Code  Gb  mfs_search.o [3]
MFS_Release_chain       0x000207d3    0x70  Code  Gb  mfs_cluster.o [3]
MFS_Remove_subdir       0x00021329   0x106  Code  Gb  mfs_directory.o [3]
MFS_Rename_file         0x00021c71   0x278  Code  Gb  mfs_rename.o [3]
MFS_Set_date_time       0x00021b6d    0x34  Code  Gb  mfs_time.o [3]
MFS_Set_file_attributes
                        0x00021a9f    0x9c  Code  Gb  mfs_attribute.o [3]
MFS_Set_volume          0x00021517    0x92  Code  Gb  mfs_directory.o [3]
MFS_Test_unused_clusters
                        0x0002247f    0xc2  Code  Gb  mfs_format.o [3]
MFS_Unmount_drive_internal
                        0x000210b5    0xea  Code  Gb  mfs_mount.o [3]
MFS_Write               0x0001a535   0x31e  Code  Gb  mfs_write.o [3]
MFS_Write_device_sector
                        0x0001fe99    0x9a  Code  Gb  mfs_rw.o [3]
MFS_Write_device_sectors
                        0x0001fde9    0xae  Code  Gb  mfs_rw.o [3]
MFS_alloc_2paths        0x00017d41    0x6a  Code  Gb  mfs_misc.o [3]
MFS_alloc_path          0x00017d0d    0x34  Code  Gb  mfs_misc.o [3]
MFS_chain_create        0x00020aff    0x54  Code  Gb  mfs_chain.o [3]
MFS_chain_forge         0x00020af1     0xe  Code  Gb  mfs_chain.o [3]
MFS_chain_init          0x00020ac5    0x2c  Code  Gb  mfs_chain.o [3]
MFS_chain_locate        0x00020b53   0x116  Code  Gb  mfs_chain.o [3]
MFS_check_dir_empty     0x0002059b    0xd0  Code  Gb  mfs_dir_chain.o [3]
MFS_dir_entry_from_disk
                        0x0001fad7    0x5c  Code  Gb  mfs_dir_entry.o [3]
MFS_find_first_file     0x00021961    0xbe  Code  Gb  mfs_find.o [3]
MFS_find_next_file      0x00021a25    0x2a  Code  Gb  mfs_find.o [3]
MFS_find_next_internal  0x000216ff   0x262  Code  Gb  mfs_find.o [3]
MFS_free_dir_entry      0x000204e1    0xba  Code  Gb  mfs_dir_chain.o [3]
MFS_free_path           0x00017db1    0x12  Code  Gb  mfs_misc.o [3]
MFS_get_cluster_from_fat
                        0x0002394d    0xd6  Code  Gb  mfs_fat.o [3]
MFS_get_dir_chain       0x000203a5   0x10a  Code  Gb  mfs_dir_chain.o [3]
MFS_get_fat12           0x000238a1    0xac  Code  Lc  mfs_fat.o [3]
MFS_get_lfn             0x0001f005    0x42  Code  Gb  mfs_lfn.o [3]
MFS_increment_lfn       0x0001e925    0xdc  Code  Gb  mfs_lfn.o [3]
MFS_ioctl               0x0001a853     0xe  Code  Gb  mfs_ioctl.o [3]
MFS_is_read_only        0x00017bb7     0x4  Code  Gb  mfs_misc.o [3]
MFS_is_valid_lfn        0x0001e715    0x6a  Code  Gb  mfs_lfn.o [3]
MFS_leave_and_unlock    0x00017c79    0x3e  Code  Gb  mfs_misc.o [3]
MFS_lfn_alias_index     0x0001e651    0xc4  Code  Gb  mfs_lfn.o [3]
MFS_lfn_chain_extract   0x0001ee39   0x1c2  Code  Gb  mfs_lfn.o [3]
MFS_lfn_checksum        0x0001ed5f    0x2a  Code  Gb  mfs_lfn.o [3]
MFS_lfn_dirname_valid   0x0001e77f    0x82  Code  Gb  mfs_lfn.o [3]
MFS_lfn_entry_extract_r
                        0x0001ed89    0xa8  Code  Gb  mfs_lfn.o [3]
MFS_lfn_entry_match_r   0x0001e1bd    0xc4  Code  Gb  mfs_lfn.o [3]
MFS_lfn_extract         0x0001e801   0x122  Code  Gb  mfs_lfn.o [3]
MFS_lfn_name_to_entry   0x0001eb03   0x25c  Code  Gb  mfs_lfn.o [3]
MFS_lfn_to_sfn          0x0001e281   0x18c  Code  Gb  mfs_lfn.o [3]
MFS_lfn_to_sfn_disk     0x0001e40d   0x244  Code  Gb  mfs_lfn.o [3]
MFS_lfn_utf16_len       0x0001e125    0x96  Code  Gb  mfs_lfn.o [3]
MFS_locate_dir_entry    0x000204af    0x32  Code  Gb  mfs_dir_chain.o [3]
MFS_lock                0x00017c2d     0xa  Code  Gb  mfs_misc.o [3]
MFS_lock_and_enter      0x00017c41    0x38  Code  Gb  mfs_misc.o [3]
MFS_mem_alloc_system    0x00017ccb    0x14  Code  Gb  mfs_misc.o [3]
MFS_mem_alloc_system_align
                        0x00017cf3    0x16  Code  Gb  mfs_misc.o [3]
MFS_mem_alloc_system_zero
                        0x00017cdf    0x14  Code  Gb  mfs_misc.o [3]
MFS_mem_alloc_zero      0x00017cb7    0x14  Code  Gb  mfs_misc.o [3]
MFS_mem_free            0x00017d09     0x4  Code  Gb  mfs_misc.o [3]
MFS_next_path_component
                        0x0001e073    0x3a  Code  Gb  mfs_parse.o [3]
MFS_path_component_len  0x0001e0ad    0x5c  Code  Gb  mfs_parse.o [3]
MFS_read_dir_chain      0x00020211   0x194  Code  Gb  mfs_dir_chain.o [3]
MFS_remove_lfn_entries  0x0001ea05    0xfe  Code  Gb  mfs_lfn.o [3]
MFS_scan_dir_chain      0x0001ffd5   0x238  Code  Gb  mfs_dir_chain.o [3]
MFS_sector_cache_alloc  0x00019a09   0x104  Code  Gb  mfs_cache.o [3]
MFS_sector_cache_flush  0x00019b4d    0xda  Code  Gb  mfs_cache.o [3]
MFS_sector_cache_flush_tag
                        0x00019c29    0xce  Code  Gb  mfs_cache.o [3]
MFS_sector_cache_free   0x00019b0d    0x3e  Code  Gb  mfs_cache.o [3]
MFS_sector_cache_invalidate
                        0x00019cf7    0x5e  Code  Gb  mfs_cache.o [3]
MFS_sector_map          0x00019d55   0x1d2  Code  Gb  mfs_cache.o [3]
MFS_sector_unmap        0x00019f27    0x66  Code  Gb  mfs_cache.o [3]
MFS_sfn_from_disk       0x0001fd0b    0xdc  Code  Gb  mfs_dir_entry.o [3]
MFS_test1               0x0000e239   0x876  Code  Gb  MFS_test.o [1]
MFS_test2               0x0000eab5   0x27e  Code  Gb  MFS_test.o [1]
MFS_test3               0x0000ed39   0x12a  Code  Gb  MFS_test.o [1]
MFS_unlock              0x00017c37     0xa  Code  Gb  mfs_misc.o [3]
MFS_unmap_directory_sector
                        0x00019649    0x2e  Code  Gb  mfs_search.o [3]
MFS_update_entries      0x0001fc0f    0xfc  Code  Gb  mfs_dir_entry.o [3]
MFS_update_entry        0x0001fb33    0xdc  Code  Gb  mfs_dir_entry.o [3]
MFS_vioctl              0x0001a861   0x376  Code  Gb  mfs_ioctl.o [3]
MFS_wildcard_match_internal
                        0x0002162d    0xd2  Code  Lc  mfs_find.o [3]
MKW40_SPI_send_buf      0x00015e0b    0x56  Code  Gb  K66BLEZ1_MKW40_Channel.o [1]
MQX_init_struct         0x00030028    0x30  Data  Gb  mqx_init.o [3]
MQX_template_list       0x0002da30   0x160  Data  Gb  Main.o [1]
Main_task               0x00015e95    0x94  Code  Gb  Main.o [1]
Measure_reference_time_interval
                        0x0000f209    0x2e  Code  Gb  RTOS_utils.o [1]
MedianFilter_3uint16    0x00010823    0x5c  Code  Gb  Filters.o [1]
Mnudrv1_deinit          0x000164d3     0xa  Code  Lc  Monitor_usb_drv.o [1]
Mnudrv1_init            0x00016499    0x3a  Code  Lc  Monitor_usb_drv.o [1]
Mnudrv1_init::__FUNCTION__
                        0x0002e56c    0x10  Data  Lc  Monitor_usb_drv.o [1]
Mnudrv1_printf          0x00016501    0x34  Code  Lc  Monitor_usb_drv.o [1]
Mnudrv1_send_buf        0x000164e1    0x18  Code  Lc  Monitor_usb_drv.o [1]
Mnudrv1_wait_ch         0x000164f9     0x8  Code  Lc  Monitor_usb_drv.o [1]
Mnudrv2_deinit          0x0001656f     0xa  Code  Lc  Monitor_usb_drv.o [1]
Mnudrv2_init            0x00016535    0x3a  Code  Lc  Monitor_usb_drv.o [1]
Mnudrv2_init::__FUNCTION__
                        0x0002e594    0x10  Data  Lc  Monitor_usb_drv.o [1]
Mnudrv2_printf          0x000165b1    0x34  Code  Lc  Monitor_usb_drv.o [1]
Mnudrv2_send_buf        0x00016591    0x18  Code  Lc  Monitor_usb_drv.o [1]
Mnudrv2_wait_ch         0x000165a9     0x8  Code  Lc  Monitor_usb_drv.o [1]
Mnudrv_get_USB_vcom_driver1
                        0x000164dd     0x4  Code  Gb  Monitor_usb_drv.o [1]
Mnudrv_get_USB_vcom_driver2
                        0x00016579     0x4  Code  Gb  Monitor_usb_drv.o [1]
Mon_input_line          0x0000b11b    0xf2  Code  Gb  MonitorVT100.o [1]
Mon_print_dump          0x0000b215    0x72  Code  Gb  MonitorVT100.o [1]
NVIC_ClearPendingIRQ    0x000015cf    0x1a  Code  Gb  K66BLEZ1_INIT_SYS.o [1]
OS_Mem_alloc_uncached_align
                        0x000186b9     0x4  Code  Gb  adapter_mqx.o [3]
OS_MsgQ_create          0x000185ed    0x2c  Code  Gb  adapter_mqx.o [3]
OS_MsgQ_recv            0x0001862b    0x16  Code  Gb  adapter_mqx.o [3]
OS_MsgQ_send            0x00018619    0x12  Code  Gb  adapter_mqx.o [3]
OS_Mutex_create         0x00018641    0x20  Code  Gb  adapter_mqx.o [3]
OS_Mutex_lock           0x00018661    0x12  Code  Gb  adapter_mqx.o [3]
OS_Mutex_unlock         0x00018673    0x12  Code  Gb  adapter_mqx.o [3]
OS_Task_create          0x000185ad    0x40  Code  Gb  adapter_mqx.o [3]
OS_Time_delay           0x00018685     0x4  Code  Gb  adapter_mqx.o [3]
PARAM_EDITOR_HELP       0x1fff04f8     0x4  Data  Lc  Parameters.o [1]
PE_CpuClockConfigurations
                        0x00006040    0xa0  Data  Gb  bsp_cm.o [3]
PSTN_Get_Comm_Feature   0x000227af    0x3c  Code  Gb  usb_cdc_pstn.o [3]
PSTN_Get_Line_Coding    0x000226c5    0x18  Code  Gb  usb_cdc_pstn.o [3]
PSTN_Send_Break         0x000227a1     0xe  Code  Gb  usb_cdc_pstn.o [3]
PSTN_Set_Comm_Feature   0x000227eb    0x3c  Code  Gb  usb_cdc_pstn.o [3]
PSTN_Set_Ctrl_Line_State
                        0x00022701    0xa0  Code  Gb  usb_cdc_pstn.o [3]
PSTN_Set_Line_Coding    0x000226dd    0x24  Code  Gb  usb_cdc_pstn.o [3]
Param_to_str            0x0000c713   0x114  Code  Gb  Parameters.o [1]
Print_MFS_test_header   0x0000b615    0x60  Code  Lc  MonitorVT100.o [1]
Print_RTC_time          0x0000acb1    0x66  Code  Lc  MonitorVT100.o [1]
RECEIVE_FIFO_SIZE       0x000085e8     0x8  Data  Lc  serl_pol_kuart.o [3]
Region$$Table$$Base     0x0003006c           --   Gb  - Linker created -
Region$$Table$$Limit    0x000300ac           --   Gb  - Linker created -
Reset_system            0x0000f2d7    0x10  Code  Gb  RTOS_utils.o [1]
Restore_from_INIfile    0x0000c943    0xe0  Code  Gb  Parameters.o [1]
Restore_from_INIfile::__FUNCTION__
                        0x0002eef4    0x18  Data  Lc  Parameters.o [1]
Restore_parameters_and_settings
                        0x0000bcfb    0x6c  Code  Gb  Parameters.o [1]
Restore_parameters_and_settings::__FUNCTION__
                        0x0002edb0    0x20  Data  Lc  Parameters.o [1]
Return_def_params       0x0000bb39   0x1c2  Code  Gb  Parameters.o [1]
Return_to_prev_menu     0x0000b079    0x26  Code  Gb  MonitorVT100.o [1]
RunAverageFilter_float  0x0001087f    0x6e  Code  Gb  Filters.o [1]
SPI0_IRQHandler         0x000123f7     0xa  Code  Gb  K66BLEZ1_SPI.o [1]
SPI1_IRQHandler         0x00012401     0xa  Code  Gb  K66BLEZ1_SPI.o [1]
SPI2_IRQHandler         0x0001240b     0xa  Code  Gb  K66BLEZ1_SPI.o [1]
SPISysBus_init          0x00010977    0x50  Code  Gb  U3HB01_SPISysBus.o [1]
SPISysBus_read_16bit_word
                        0x000109f7    0x5e  Code  Gb  U3HB01_SPISysBus.o [1]
SPISysBus_write_16bit_word
                        0x00010a55    0x5a  Code  Gb  U3HB01_SPISysBus.o [1]
SPISysBus_write_read_buf_dma
                        0x000109c7    0x30  Code  Gb  U3HB01_SPISysBus.o [1]
SPI_isr                 0x00012381    0x76  Code  Lc  K66BLEZ1_SPI.o [1]
SPI_master_init         0x00012415   0x198  Code  Gb  K66BLEZ1_SPI.o [1]
SPI_push_16bit_word     0x0001267d    0x10  Code  Gb  K66BLEZ1_SPI.o [1]
SPI_slave_init          0x000125ad    0xd0  Code  Gb  K66BLEZ1_SPI.o [1]
SPI_wait_tx_complete    0x0001268d    0x60  Code  Gb  K66BLEZ1_SPI.o [1]
SPI_wait_tx_complete::dummy
                        0x200091e0     0x2  Data  Lc  K66BLEZ1_SPI.o [1]
Save_Params_to_INIfile  0x0000ca39   0x210  Code  Gb  Parameters.o [1]
Save_Params_to_INIfile::__FUNCTION__
                        0x0002ef8c    0x18  Data  Lc  Parameters.o [1]
Set_LED_pattern         0x0000f04b    0x82  Code  Gb  LED_control.o [1]
Set_LED_voltage         0x0000f035    0x16  Code  Gb  LED_control.o [1]
Set_MKW40_CS_state      0x00003099    0x18  Code  Gb  Init_Pins.o [1]
Set_adc_isr_asyncs_ctrl_callback
                        0x00013757     0x6  Code  Gb  K66BLEZ1_ADC.o [1]
Set_adc_isr_current_meas_callback
                        0x0001374b     0x6  Code  Gb  K66BLEZ1_ADC.o [1]
Set_adc_isr_filtering_callback
                        0x00013751     0x6  Code  Gb  K66BLEZ1_ADC.o [1]
Set_hall_isr_commutation_callback
                        0x00013c31     0x6  Code  Gb  U3HB01_Hall_sensor.o [1]
Set_hall_isr_position_ctrl_callback
                        0x00013c25     0x6  Code  Gb  U3HB01_Hall_sensor.o [1]
Set_hall_isr_speed_ctrl_callback
                        0x00013c2b     0x6  Code  Gb  U3HB01_Hall_sensor.o [1]
Set_monitor_func        0x0000ae1b    0x10  Code  Gb  MonitorVT100.o [1]
Shell                   0x00023ca5   0x1f0  Code  Gb  shell.o [3]
Shell_cd                0x000244b1   0x10e  Code  Gb  sh_cd.o [3]
Shell_check_help_request
                        0x00024111    0x36  Code  Gb  sh_util.o [3]
Shell_command_list      0x000246b5    0x78  Code  Gb  sh_cmdlist.o [3]
Shell_commands          0x0002de38    0xb8  Data  Gb  MFS_Shell.o [1]
Shell_copy              0x0002474d   0x18a  Code  Gb  sh_copy.o [3]
Shell_create            0x00024aa5    0xfe  Code  Gb  sh_create.o [3]
Shell_del               0x00024ccd    0xf0  Code  Gb  sh_del.o [3]
Shell_df                0x00024ea1    0xda  Code  Gb  sh_df.o [3]
Shell_di                0x000252c5   0x204  Code  Gb  sh_di.o [3]
Shell_dir               0x000259a9   0x110  Code  Gb  sh_dir.o [3]
Shell_disect            0x00025f39   0x176  Code  Gb  sh_disect.o [3]
Shell_exit              0x00026209    0x52  Code  Gb  sh_exit.o [3]
Shell_format            0x00026271   0x17a  Code  Gb  sh_format.o [3]
Shell_get_current_filesystem
                        0x00024147    0x54  Code  Gb  sh_util.o [3]
Shell_get_current_filesystem_name
                        0x0002419b    0x54  Code  Gb  sh_util.o [3]
Shell_help              0x00026569    0xc6  Code  Gb  sh_help.o [3]
Shell_mkdir             0x000266e1    0xe4  Code  Gb  sh_mkdir.o [3]
Shell_parse_command_line
                        0x00023fa5    0xec  Code  Gb  sh_util.o [3]
Shell_parse_int_32      0x000240c9    0x48  Code  Gb  sh_util.o [3]
Shell_parse_uint_32     0x00024091    0x36  Code  Gb  sh_util.o [3]
Shell_pwd               0x000268bd    0x7a  Code  Gb  sh_pwd.o [3]
Shell_read              0x000269a5   0x1b6  Code  Gb  sh_read.o [3]
Shell_read_test         0x00026dbd   0x1b6  Code  Gb  sh_readtest.o [3]
Shell_rename            0x000297bd   0x136  Code  Gb  sh_rename.o [3]
Shell_rmdir             0x00029a49    0xfc  Code  Gb  sh_rmdir.o [3]
Shell_set_current_filesystem
                        0x000241ef    0x4a  Code  Gb  sh_util.o [3]
Shell_set_current_filesystem_by_name
                        0x00024239    0x42  Code  Gb  sh_util.o [3]
Shell_sh                0x00029c51    0xca  Code  Gb  sh_sh.o [3]
Shell_type              0x00029de1    0xfa  Code  Gb  sh_type.o [3]
Shell_write             0x00029fe5   0x206  Code  Gb  sh_write.o [3]
Shell_write_test        0x0002a495   0x1ae  Code  Gb  sh_writetest.o [3]
Start_DMA_for_SPI_RXTX  0x000033c1    0x60  Code  Gb  K66BLEZ1_DMA.o [1]
Start_DMA_for_SPI_TX    0x0000335f    0x62  Code  Gb  K66BLEZ1_DMA.o [1]
Str_to_param            0x0000c3b5   0x35e  Code  Gb  Parameters.o [1]
TEXTSECTION$$Base       0x00000420           --   Gb  - Linker created -
TEXTSECTION$$Limit      0x0002bfa0           --   Gb  - Linker created -
TRANSMIT_FIFO_SIZE      0x000085e0     0x8  Data  Lc  serl_pol_kuart.o [3]
Task_CAN_Rx             0x00015605     0xa  Code  Gb  K66BLEZ1_CAN.o [1]
Task_CAN_Tx             0x000155f1    0x14  Code  Gb  K66BLEZ1_CAN.o [1]
Task_FreeMaster         0x00014b6f    0x36  Code  Gb  Task_FreeMaster.o [1]
Task_MKW40              0x000242f9    0x28  Code  Gb  MKW40_Channel.o [1]
Task_VT100              0x0000ad17   0x104  Code  Gb  MonitorVT100.o [1]
Task_background         0x0000f237    0x2e  Code  Gb  RTOS_utils.o [1]
Task_file_log           0x0000a309   0x208  Code  Gb  App_logger.o [1]
Task_file_log::__FUNCTION__
                        0x0002c3b0    0x10  Data  Lc  App_logger.o [1]
Task_shell              0x00023c55    0x24  Code  Gb  MFS_Shell.o [1]
Task_supervisor         0x00015f29    0x46  Code  Gb  Supervisor_task.o [1]
Trim_and_dequote_str    0x0000c8e9    0x5a  Code  Gb  Parameters.o [1]
U3HB01_ADC_processing   0x0000e08d    0x3c  Code  Gb  U3HB01_main.o [1]
U3HB01_Convert_ext_mot_temp
                        0x0000dfd1    0x90  Code  Gb  U3HB01_main.o [1]
U3HB01_Convert_ext_temp
                        0x0000df41    0x90  Code  Gb  U3HB01_main.o [1]
U3HB01_Convert_int_temp
                        0x0000df01    0x40  Code  Gb  U3HB01_main.o [1]
U3HB01_Convert_vdc_temp
                        0x0000e061    0x2c  Code  Gb  U3HB01_main.o [1]
U3HB01_Freemaster_Command_Manager
                        0x000137c3    0x7e  Code  Gb  U3HB01_FreemasterCmdMan.o [1]
U3HB01_Rot_post_evt     0x00010c55     0xc  Code  Gb  U3HB01_RotationControl.o [1]
U3HB01_Rotation_control
                        0x00010df3    0xfa  Code  Gb  U3HB01_RotationControl.o [1]
U3HB01_Rotation_freemaster_cmd_man
                        0x00010dab    0x48  Code  Lc  U3HB01_RotationControl.o [1]
U3HB01_Set_freemaster_cmd_man
                        0x000137bd     0x6  Code  Gb  U3HB01_FreemasterCmdMan.o [1]
U3HB01_Slnd_post_evt    0x00010ad5     0xc  Code  Gb  U3HB01_SolenoidControl.o [1]
U3HB01_Solenoid_control
                        0x00010b69    0xb0  Code  Gb  U3HB01_SolenoidControl.o [1]
U3HB01_Solenoid_freemaster_cmd_man
                        0x00010b39    0x30  Code  Lc  U3HB01_SolenoidControl.o [1]
U3HB01_Task_selector    0x0000e0c9    0x2a  Code  Gb  U3HB01_main.o [1]
U3HB01_get_hall_state   0x00014379    0x2c  Code  Gb  U3HB01_Pins.o [1]
USB_Audio_Requests      0x0001c5d1   0x5bc  Code  Gb  usb_audio.o [3]
USB_CDC_Other_Requests  0x0001b74b    0xc2  Code  Gb  usb_cdc.o [3]
USB_Class_Audio_Event   0x0001c49f   0x124  Code  Gb  usb_audio.o [3]
USB_Class_Audio_Init    0x0001cb8d    0xd8  Code  Gb  usb_audio.o [3]
USB_Class_CDC_Event     0x0001b519   0x232  Code  Gb  usb_cdc.o [3]
USB_Class_CDC_Get_Speed
                        0x0001b8e9    0x10  Code  Gb  usb_cdc.o [3]
USB_Class_CDC_Init      0x0001b80d    0xae  Code  Gb  usb_cdc.o [3]
USB_Class_CDC_Recv_Data
                        0x0001b8db     0xe  Code  Gb  usb_cdc.o [3]
USB_Class_CDC_Send_Data
                        0x0001b8cd     0xe  Code  Gb  usb_cdc.o [3]
USB_Class_Get_Class_Handle
                        0x0001c1a7     0x6  Code  Gb  usb_class.o [3]
USB_Class_Get_Ctrler_Handle
                        0x0001c1b5     0xe  Code  Gb  usb_class.o [3]
USB_Class_Get_Status    0x0001c199     0xe  Code  Gb  usb_class.o [3]
USB_Class_HID_Init      0x0001c3b5    0x70  Code  Gb  usb_hid.o [3]
USB_Class_Hid_Event     0x0001c205   0x168  Code  Gb  usb_hid.o [3]
USB_Class_Init          0x0001c141    0x4a  Code  Gb  usb_class.o [3]
USB_Class_MSC_Event     0x0001d1c9   0x2e2  Code  Gb  usb_msc.o [3]
USB_Class_MSC_Init      0x0001d59d   0x128  Code  Gb  usb_msc.o [3]
USB_Class_MSC_Send_Data
                        0x0001d6d9     0xe  Code  Gb  usb_msc.o [3]
USB_Class_PHDC_Event    0x0001d7f1   0x1e6  Code  Gb  usb_phdc.o [3]
USB_Class_PHDC_Init     0x0001dbbf    0x86  Code  Gb  usb_phdc.o [3]
USB_Class_Send_Data     0x0001c18b     0xe  Code  Gb  usb_class.o [3]
USB_Composite_Event     0x00019259    0x78  Code  Gb  usb_composite.o [3]
USB_Composite_Init      0x00019145   0x10e  Code  Gb  usb_composite.o [3]
USB_Composite_Requests  0x000192d1   0x182  Code  Gb  usb_composite.o [3]
USB_Control_Service     0x00022835   0x140  Code  Gb  usb_framework.o [3]
USB_Debug_Printf_Class_Callback
                        0x00019465     0x2  Code  Gb  USB_debug.o [1]
USB_Debug_Printf_Composite_Init
                        0x00019461     0x2  Code  Gb  USB_debug.o [1]
USB_Debug_Printf_Descriptor
                        0x00019455     0x2  Code  Gb  USB_debug.o [1]
USB_Debug_Printf_Device_Callback
                        0x00019463     0x2  Code  Gb  USB_debug.o [1]
USB_Debug_Printf_Get_Abstract_State
                        0x0001946b     0x2  Code  Gb  USB_debug.o [1]
USB_Debug_Printf_Get_Country_Setting
                        0x0001946d     0x2  Code  Gb  USB_debug.o [1]
USB_Debug_Printf_Get_Descriptor
                        0x00019453     0x2  Code  Gb  USB_debug.o [1]
USB_Debug_Printf_Get_Entity
                        0x0001945d     0x2  Code  Gb  USB_debug.o [1]
USB_Debug_Printf_Get_Interface
                        0x00019457     0x2  Code  Gb  USB_debug.o [1]
USB_Debug_Printf_Get_Line_Coding
                        0x00019467     0x2  Code  Gb  USB_debug.o [1]
USB_Debug_Printf_Set_Abstract_State
                        0x0001946f     0x2  Code  Gb  USB_debug.o [1]
USB_Debug_Printf_Set_Configation
                        0x0001945b     0x2  Code  Gb  USB_debug.o [1]
USB_Debug_Printf_Set_Country_Setting
                        0x00019471     0x2  Code  Gb  USB_debug.o [1]
USB_Debug_Printf_Set_Interface
                        0x00019459     0x2  Code  Gb  USB_debug.o [1]
USB_Debug_Printf_Set_Line_Coding
                        0x00019469     0x2  Code  Gb  USB_debug.o [1]
USB_Debug_Printf_Set_Speed
                        0x0001945f     0x2  Code  Gb  USB_debug.o [1]
USB_Desc_Get_Descriptor
                        0x0001b8f9    0xda  Code  Gb  usb_device_descriptor.o [1]
USB_Desc_Get_Entity     0x0001ba45    0x58  Code  Gb  usb_device_descriptor.o [1]
USB_Desc_Get_Interface  0x0001b9d3    0x24  Code  Gb  usb_device_descriptor.o [1]
USB_Desc_Set_Interface  0x0001b9f7    0x22  Code  Gb  usb_device_descriptor.o [1]
USB_Desc_Set_Speed      0x0001ba9d    0xd0  Code  Gb  usb_device_descriptor.o [1]
USB_HID_Requests        0x0001c36d    0x48  Code  Gb  usb_hid.o [3]
USB_MSC_LBA_Transfer    0x0001d6e7   0x10a  Code  Gb  usb_msc.o [3]
USB_MSC_Requests        0x0001d4ab    0xf2  Code  Gb  usb_msc.o [3]
USB_MSC_SCSI_Init       0x00022fd3    0x96  Code  Gb  usb_msc_scsi.o [3]
USB_PHDC_Endpoint_Service
                        0x0001da21   0x19e  Code  Gb  usb_phdc.o [3]
USB_PHDC_Requests       0x0001d9d7    0x48  Code  Gb  usb_phdc.o [3]
USB_Pstn_Init           0x00022691    0x34  Code  Gb  usb_cdc_pstn.o [3]
USB_Reset_Service       0x00022979    0x4e  Code  Gb  usb_framework.o [3]
USB_STR_0               0x1fff0788     0x4  Data  Gb  usb_device_descriptor.o [1]
USB_STR_1               0x1fff078c    0x14  Data  Gb  usb_device_descriptor.o [1]
USB_STR_2               0x1fff07a0    0x24  Data  Gb  usb_device_descriptor.o [1]
USB_STR_3               0x1fff07c4    0x14  Data  Gb  usb_device_descriptor.o [1]
USB_STR_4               0x1fff07d8    0x14  Data  Gb  usb_device_descriptor.o [1]
USB_STR_n               0x1fff07ec    0x24  Data  Gb  usb_device_descriptor.o [1]
USB_Service_Audio_Isochronous_IN
                        0x0001c451    0x28  Code  Gb  usb_audio.o [3]
USB_Service_Audio_Isochronous_OUT
                        0x0001c479    0x26  Code  Gb  usb_audio.o [3]
USB_Service_Audio_Status_Interrupt
                        0x0001c431    0x20  Code  Gb  usb_audio.o [3]
USB_Service_Bulk_In     0x0001cd69   0x1b0  Code  Gb  usb_msc.o [3]
USB_Service_Bulk_Out    0x0001cf19   0x2b0  Code  Gb  usb_msc.o [3]
USB_Service_Cdc_Notif   0x0001b4b5    0x24  Code  Gb  usb_cdc.o [3]
USB_Service_Dic_Bulk_In
                        0x0001b4d9    0x20  Code  Gb  usb_cdc.o [3]
USB_Service_Dic_Bulk_Out
                        0x0001b4f9    0x20  Code  Gb  usb_cdc.o [3]
USB_Service_Hid_IN      0x0001c1c5    0x20  Code  Gb  usb_hid.o [3]
USB_Service_Hid_OUT     0x0001c1e5    0x20  Code  Gb  usb_hid.o [3]
USB_Set_Configation     0x0001ba19    0x2c  Code  Gb  usb_device_descriptor.o [1]
USB_Strd_Req_Feature    0x00022a1f    0xa0  Code  Lc  usb_framework.o [3]
USB_Strd_Req_Get_Config
                        0x00022adf     0xc  Code  Lc  usb_framework.o [3]
USB_Strd_Req_Get_Descriptor
                        0x00022bbf    0x24  Code  Lc  usb_framework.o [3]
USB_Strd_Req_Get_Interface
                        0x00022b33    0x28  Code  Lc  usb_framework.o [3]
USB_Strd_Req_Get_Status
                        0x000229c7    0x58  Code  Lc  usb_framework.o [3]
USB_Strd_Req_Set_Address
                        0x00022abf    0x20  Code  Lc  usb_framework.o [3]
USB_Strd_Req_Set_Config
                        0x00022aeb    0x48  Code  Lc  usb_framework.o [3]
USB_Strd_Req_Set_Interface
                        0x00022b5b    0x46  Code  Lc  usb_framework.o [3]
USB_Strd_Req_Sync_Frame
                        0x00022ba1    0x1e  Code  Lc  usb_framework.o [3]
USER_DEFAULT_MEMORY$$Base
                        0x1fff0400           --   Gb  - Linker created -
USER_DEFAULT_MEMORY$$Limit
                        0x200091fc           --   Gb  - Linker created -
USER_MEMORY$$Base       0x1fff0400           --   Gb  - Linker created -
USER_MEMORY$$Limit      0x200091fc           --   Gb  - Linker created -
VCom1_USB_App_Class_Callback
                        0x00018863   0x20e  Code  Gb  USB_virtual_com1.o [1]
VCom1_USB_App_Device_Callback
                        0x000187ed    0x76  Code  Gb  USB_virtual_com1.o [1]
VCom1_USB_get_data      0x00018adf    0xfe  Code  Gb  USB_virtual_com1.o [1]
VCom1_USB_send_data     0x00018a93    0x4c  Code  Gb  USB_virtual_com1.o [1]
VCom1_USB_wait_sending_end
                        0x00018a71    0x22  Code  Gb  USB_virtual_com1.o [1]
VCom2_USB_App_Class_Callback
                        0x00018da7   0x20e  Code  Gb  USB_virtual_com2.o [1]
VCom2_USB_App_Device_Callback
                        0x00018d31    0x76  Code  Gb  USB_virtual_com2.o [1]
VCom2_USB_get_data      0x00019023    0xfe  Code  Gb  USB_virtual_com2.o [1]
VCom2_USB_send_data     0x00018fd7    0x4c  Code  Gb  USB_virtual_com2.o [1]
VCom2_USB_wait_sending_end
                        0x00018fb5    0x22  Code  Gb  USB_virtual_com2.o [1]
VT100_send_str_to_pos   0x0000b0c3    0x36  Code  Gb  MonitorVT100.o [1]
VT100_set_cursor_pos    0x0000b09f    0x24  Code  Gb  MonitorVT100.o [1]
Vcom1_USB_get_cbl       0x00018bdd     0x4  Code  Gb  USB_virtual_com1.o [1]
Vcom1_change_ep_sz      0x000187a5    0x48  Code  Gb  USB_virtual_com1.o [1]
Vcom2_USB_get_cbl       0x00019121     0x4  Code  Gb  USB_virtual_com2.o [1]
Vcom2_change_ep_sz      0x00018ce9    0x48  Code  Gb  USB_virtual_com2.o [1]
Vitrual_com_init        0x00016355    0x7c  Code  Lc  USB_composite_dev.o [1]
WS2812B_bits            0x1fff0bc0  0x16e4  Data  Lc  U3HB01_WS2812B.o [1]
WS2812B_init_DMA_TCD    0x000165e5    0xae  Code  Lc  U3HB01_WS2812B.o [1]
WS2812B_periodic_refresh
                        0x00016693   0x19c  Code  Gb  U3HB01_WS2812B.o [1]
WS2812B_periodic_refresh::color1
                        0x20008a80     0x4  Data  Lc  U3HB01_WS2812B.o [1]
WS2812B_periodic_refresh::color2
                        0x20008a84     0x4  Data  Lc  U3HB01_WS2812B.o [1]
WS2812B_periodic_refresh::color3
                        0x20008a88     0x4  Data  Lc  U3HB01_WS2812B.o [1]
WS2812B_set_led_state   0x00016945    0xd2  Code  Gb  U3HB01_WS2812B.o [1]
WS2812B_state_automat   0x00016a17   0x36e  Code  Lc  U3HB01_WS2812B.o [1]
WatchDog_get_counter    0x00016349     0x6  Code  Gb  WatchDogCtrl.o [1]
WatchDog_init           0x000162f5    0x40  Code  Gb  WatchDogCtrl.o [1]
WatchDog_refresh        0x00016335    0x14  Code  Gb  WatchDogCtrl.o [1]
Write_start_log_rec     0x00015f6f   0x124  Code  Gb  Supervisor_task.o [1]
Write_start_log_rec::__FUNCTION__
                        0x0002f074    0x14  Data  Lc  Supervisor_task.o [1]
_BSP_sram_pool          0x1fff22c0     0x4  Data  Gb  init_bsp.o [3]
_Clear_motor_debug_vars
                        0x00013285    0x1a  Code  Lc  U3HB01_BLDC.o [1]
_Copy16_32bit_buf_to8bit_buf
                        0x00013885    0x1e  Code  Gb  U3HB01_ExtEncoder.o [1]
_Get_attr_size          0x000031a7    0x20  Code  Lc  K66BLEZ1_DMA.o [1]
_Get_crc8               0x000138a3    0x1c  Code  Gb  U3HB01_ExtEncoder.o [1]
_IsdstStr               0x1fff0a04     0x4  Data  Gb  setlocale.o [4]
_LocaleC_isalpha        0x00010f4d    0x16  Code  Gb  xlocale_c.o [4]
_LocaleC_ispunct        0x00010f63    0x24  Code  Gb  xlocale_c.o [4]
_LocaleC_isspace        0x00010f87    0x14  Code  Gb  xlocale_c.o [4]
_LocaleC_tolower        0x000154ad     0xc  Code  Gb  xlocale_c.o [4]
_LocaleForCat           0x00010f35    0x12  Code  Gb  setlocale.o [4]
_LocaleReturnString     0x1fff0a24    0x50  Data  Lc  setlocale.o [4]
_Locale_Profile         0x1fff0a08    0x1c  Data  Gb  setlocale.o [4]
_Locale_aeabi_lconv     0x1fff0ac4    0x38  Data  Gb  localeconv.o [4]
_Locale_lconv           0x1fff0a74    0x50  Data  Gb  localeconv.o [4]
_MFS_pool_id            0x20008d34     0x4  Data  Gb  mfs_globals.o [3]
_ROTC_Rotation_Brake    0x00010c69     0x8  Code  Lc  U3HB01_RotationControl.o [1]
_ROTC_Rotation_ForceBrake
                        0x00010c71     0x8  Code  Lc  U3HB01_RotationControl.o [1]
_ROTC_Rotation_FreeRun  0x00010c79     0x8  Code  Lc  U3HB01_RotationControl.o [1]
_ROTC_Rotation_Start    0x00010c61     0x8  Code  Lc  U3HB01_RotationControl.o [1]
_ROTC_load_app_params   0x00010d89    0x22  Code  Lc  U3HB01_RotationControl.o [1]
_Rand_idx               0x1fff097c     0x4  Data  Lc  rand.o [4]
_Rand_rv                0x1fff0980    0x80  Data  Lc  rand.o [4]
_Randinit               0x1fff0974     0x1  Data  Gb  rand.o [4]
_Randseed               0x1fff0978     0x4  Data  Gb  rand.o [4]
_Rotation_angle_control
                        0x00010d09    0x22  Code  Lc  U3HB01_RotationControl.o [1]
_Rotation_control       0x00010d2b    0x5e  Code  Lc  U3HB01_RotationControl.o [1]
_Set_motor_debug_vars   0x000129e9    0x5a  Code  Lc  U3HB01_Hall_BLDC.o [1]
_Start_Break_phase      0x00010c81     0x8  Code  Lc  U3HB01_RotationControl.o [1]
_Start_Force_Break_phase
                        0x00010c89    0x16  Code  Lc  U3HB01_RotationControl.o [1]
_Start_FreeRun_phase    0x00010c9f     0x8  Code  Lc  U3HB01_RotationControl.o [1]
_Start_rotation         0x00010ca7    0x62  Code  Lc  U3HB01_RotationControl.o [1]
_Stoflt                 0x00013f41   0x1b8  Code  Gb  xstoflt.o [4]
_Stopfx                 0x00013e1d   0x122  Code  Gb  xstopfx.o [4]
_Stoxflt                0x000140f9   0x1e2  Code  Gb  xstoxflt.o [4]
_Stoxflt::digits        0x000142e0    0x18  Data  Lc  xstoxflt.o [4]
_Stoxflt::vals          0x000142f8    0x18  Data  Lc  xstoxflt.o [4]
_TzoneStr               0x1fff0a00     0x4  Data  Gb  setlocale.o [4]
_Vcom_Get_Abstract_State
                        0x0001870d    0x1c  Code  Lc  USB_virtual_com1.o [1]
_Vcom_Get_Abstract_State
                        0x00018c51    0x1c  Code  Lc  USB_virtual_com2.o [1]
_Vcom_Get_Country_Setting
                        0x00018729    0x1c  Code  Lc  USB_virtual_com1.o [1]
_Vcom_Get_Country_Setting
                        0x00018c6d    0x1c  Code  Lc  USB_virtual_com2.o [1]
_Vcom_Get_Line_Coding   0x000186bd    0x1c  Code  Lc  USB_virtual_com1.o [1]
_Vcom_Get_Line_Coding   0x00018c01    0x1c  Code  Lc  USB_virtual_com2.o [1]
_Vcom_Set_Abstract_State
                        0x00018745    0x30  Code  Lc  USB_virtual_com1.o [1]
_Vcom_Set_Abstract_State
                        0x00018c89    0x30  Code  Lc  USB_virtual_com2.o [1]
_Vcom_Set_Country_Setting
                        0x00018775    0x30  Code  Lc  USB_virtual_com1.o [1]
_Vcom_Set_Country_Setting
                        0x00018cb9    0x30  Code  Lc  USB_virtual_com2.o [1]
_Vcom_Set_Line_Coding   0x000186d9    0x34  Code  Lc  USB_virtual_com1.o [1]
_Vcom_Set_Line_Coding   0x00018c1d    0x34  Code  Lc  USB_virtual_com2.o [1]
__BOOT_STACK_ADDRESS {Abs}
                        0x2002fef0          Data  Gb  command line/config [2]
__DEFAULT_INTERRUPT_STACK_SIZE {Abs}
                        0x00000400          Data  Gb  command line/config [2]
__DEFAULT_PROCESSOR_NUMBER {Abs}
                        0x00000001          Data  Gb  command line/config [2]
__FLASHX_END_ADDR {Abs}
                        0x00100000          Data  Gb  command line/config [2]
__FLASHX_SECT_SIZE {Abs}
                        0x00001000          Data  Gb  command line/config [2]
__FLASHX_START_ADDR     0x00031000     0x1  Data  Gb  vectors.o [3]
__INTERNAL_FLASH_BASE {Abs}
                        0x00000000          Data  Gb  command line/config [2]
__INTERNAL_FLASH_SIZE {Abs}
                        0x00100000          Data  Gb  command line/config [2]
__INTERNAL_FLEXNVM_BASE {Abs}
                        0x00000000          Data  Gb  command line/config [2]
__INTERNAL_FLEXNVM_SIZE {Abs}
                        0x00000000          Data  Gb  command line/config [2]
__INTERNAL_SRAM_BASE {Abs}
                        0x1fff0000          Data  Gb  command line/config [2]
__INTERNAL_SRAM_SIZE {Abs}
                        0x00040000          Data  Gb  command line/config [2]
__KERNEL_AREA_END {Abs}
                        0x20007ff0          Data  Gb  command line/config [2]
__KERNEL_AREA_START {Abs}
                        0x1fff0000          Data  Gb  command line/config [2]
__KERNEL_DATA_END {Abs}
                        0x2002fff0          Data  Gb  command line/config [2]
__KERNEL_DATA_START     0x20009200          Data  Gb  kernel_symbols.o [3]
__SRAM_POOL {Abs}       0x1fff0000          Data  Gb  command line/config [2]
__UNCACHED_DATA_END {Abs}
                        0x2002fff0          Data  Gb  command line/config [2]
__UNCACHED_DATA_SIZE {Abs}
                        0x00040000          Data  Gb  command line/config [2]
__UNCACHED_DATA_START {Abs}
                        0x1fff0000          Data  Gb  command line/config [2]
__USER_AREA_END {Abs}   0x2002fff0          Data  Gb  command line/config [2]
__USER_AREA_START {Abs}
                        0x20008000          Data  Gb  command line/config [2]
__VECTOR_TABLE_RAM_START {Abs}
                        0x1fff0000          Data  Gb  command line/config [2]
__VECTOR_TABLE_ROM_START {Abs}
                        0x00000000          Data  Gb  command line/config [2]
__aeabi_JMP_BUF_SIZE {Abs}
                        0x00000010           --   Gb  setjmp.o [5]
__aeabi_cdcmpeq         0x00009c2d          Code  Gb  DblCmpEq.o [5]
__aeabi_cdcmple         0x00012069          Code  Gb  DblCmpLe.o [5]
__aeabi_cdrcmple        0x00012039          Code  Gb  DblCmpGe.o [5]
__aeabi_d2f             0x0000f33d          Code  Gb  DblToFlt.o [5]
__aeabi_d2iz            0x00011fed          Code  Gb  DblToI32.o [5]
__aeabi_dadd            0x000105a9          Code  Gb  DblAdd.o [5]
__aeabi_ddiv            0x00009ca5          Code  Gb  DblDiv.o [5]
__aeabi_dmul            0x00009975          Code  Gb  DblMul.o [5]
__aeabi_dsub            0x00010691          Code  Gb  DblSub.o [5]
__aeabi_errno_addr      0x00009efd     0x6  Code  Gb  errno.o [4]
__aeabi_f2d             0x0000f3cd          Code  Gb  FltToDbl.o [5]
__aeabi_i2d             0x00010579          Code  Gb  I32ToDbl.o [5]
__aeabi_ldiv0           0x00005d85          Code  Gb  I64DivZer.o [6]
__aeabi_ldivmod         0x000056f9          Code  Gb  I64DivMod.o [6]
__aeabi_llsl            0x00023bed          Code  Gb  I64Shl.o [6]
__aeabi_memclr          0x00002f8d          Code  Gb  ABImemclr.o [6]
__aeabi_memclr4         0x0002282d          Code  Gb  ABImemclr4.o [6]
__aeabi_memset          0x00003c81          Code  Gb  ABImemset.o [6]
__aeabi_memset4         0x00005d89          Code  Gb  ABImemset48.o [6]
__aeabi_memset8         0x00005d89          Code  Gb  ABImemset48.o [6]
__aeabi_ui2d            0x0001058d          Code  Gb  I32ToDbl.o [5]
__aeabi_uldivmod        0x0000573d          Code  Gb  I64DivMod.o [6]
__boot                  0x00000471          Code  Gb  boot.o [3]
__boot_exception        0x00002f93     0x2  Code  Lc  vectors.o [3]
__checksum              0x000fffd0     0x4  Data  Gb  Place holder __checksum
__checksum_begin {Abs}  0x00008000          Data  Gb  command line/config [2]
__checksum_end {Abs}    0x000fffcf          Data  Gb  command line/config [2]
__cmain                 0x00002fb9          Code  Gb  cmain.o [6]
__get_MSP               0x0002c273          Code  Gb  dispatch.o [3]
__get_PSP               0x0002c26d          Code  Gb  dispatch.o [3]
__get_PSR               0x0002c27f          Code  Gb  dispatch.o [3]
__iar_Dnorm             0x00009931    0x44  Code  Gb  xdnorm.o [5]
__iar_Dscale            0x00009b19   0x114  Code  Gb  xdscale.o [5]
__iar_Dtentox           0x0000978d   0x140  Code  Gb  xdtento.o [5]
__iar_Dunscale          0x00009c4d    0x56  Code  Gb  xdunscal.o [5]
__iar_Errno             0x1fff0afc     0x4  Data  Gb  errno.o [4]
__iar_Locale_lconv_init
                        0x00014c29    0x3a  Code  Gb  localeconv.o [4]
__iar_Log               0x00012099   0x25a  Code  Gb  xlog.o [5]
__iar_Memchr            0x00014bd1          Code  Gb  memchr.o [6]
__iar_Memset            0x00003c81          Code  Gb  ABImemset.o [6]
__iar_Memset4_word      0x00005d91          Code  Gb  ABImemset48.o [6]
__iar_Memset8_word      0x00005d91          Code  Gb  ABImemset48.o [6]
__iar_Memset_word       0x00003c89          Code  Gb  ABImemset.o [6]
__iar_Stod              0x00011e85     0x4  Code  Gb  xstod.o [5]
__iar_Stodx             0x00011d21   0x14e  Code  Gb  xstod.o [5]
__iar_Stolx             0x00011c99    0x88  Code  Gb  xstol.o [4]
__iar_Stoulx            0x00013c89   0x13e  Code  Gb  xstoul.o [4]
__iar_Strchr            0x0000f469          Code  Gb  strchr.o [6]
__iar_d2uiz             0x00012019          Code  Gb  DblToI32.o [5]
__iar_dadd              0x000105bd          Code  Gb  DblAdd.o [5]
__iar_data_init3        0x00003ce9    0x28  Code  Gb  data_init.o [6]
__iar_dlib_perthread_access
                        0x00009f09     0x2  Code  Gb  xtls.o [4]
__iar_dsub              0x000106a5          Code  Gb  DblSub.o [5]
__iar_dsubStart         0x000106b7          Code  Gb  DblSub.o [5]
__iar_init_vfp          0x00002f95          Code  Gb  fpinit_M.o [5]
__iar_lz77_init_single3
                        0x0002bf29    0x78  Code  Gb  lz77_init_single.o [6]
__iar_modf              0x00011f45          Code  Gb  modf.o [5]
__iar_modfl             0x00011f45          Code  Gb  modf.o [5]
__iar_program_start     0x00001425          Code  Gb  cstartup_M.o [6]
__iar_ui2d              0x00010591          Code  Gb  I32ToDbl.o [5]
__iar_unaligned___aeabi_memcpy
                        0x00003d25          Code  Gb  ABImemcpy_unaligned.o [6]
__iar_unaligned___aeabi_memcpy4
                        0x00003d45          Code  Gb  ABImemcpy_unaligned.o [6]
__iar_unaligned___aeabi_memcpy8
                        0x00003d45          Code  Gb  ABImemcpy_unaligned.o [6]
__iar_unaligned_memcmp  0x0001f089          Code  Gb  memcmp_unaligned.o [6]
__iar_unaligned_strcmp  0x0000e1a1          Code  Gb  strcmp_unaligned.o [6]
__iar_unaligned_strcpy  0x00011691          Code  Gb  strcpy_unaligned.o [6]
__iar_unaligned_strncpy
                        0x0000ab79          Code  Gb  strncpy_unaligned.o [6]
__iar_vfp___iar_Stod    0x00011e89     0x4  Code  Gb  xstod.o [5]
__iar_vfp_log           0x00010811    0x12  Code  Gb  log.o [5]
__iar_vfp_modf          0x00011f2d          Code  Gb  modf.o [5]
__iar_vfp_modfl         0x00011f2d          Code  Gb  modf.o [5]
__iar_vfp_strtod        0x0000f32f     0xe  Code  Gb  strtod.o [5]
__iar_zero_init3        0x0002bee9    0x40  Code  Gb  zero_init3.o [6]
__low_level_init        0x000004bd     0xe  Code  Gb  comp.o [3]
__set_MSP               0x0002c279          Code  Gb  dispatch.o [3]
__vector_table          0x00000000   0x400  Data  Gb  vectors.o [3]
_applog_write           0x00009fb7    0xec  Code  Lc  App_logger.o [1]
_bsp_esdhc0_init        0x0002ffb4     0xc  Data  Gb  init_esdhc.o [3]
_bsp_esdhc_io_init      0x000061df    0x2e  Code  Gb  init_gpio.o [3]
_bsp_exit_handler       0x00005af5     0x2  Code  Gb  init_bsp.o [3]
_bsp_get_clock          0x00006003    0x2a  Code  Gb  bsp_cm.o [3]
_bsp_get_clock_configuration
                        0x00005ffd     0x6  Code  Gb  bsp_cm.o [3]
_bsp_get_esdhc_base_address
                        0x00008e4d     0xa  Code  Gb  esdhc_mk65.o [3]
_bsp_get_esdhc_vector   0x00008e5d     0xa  Code  Gb  esdhc_mk65.o [3]
_bsp_get_hwticks        0x00005afd    0x12  Code  Gb  init_bsp.o [3]
_bsp_get_serial_base_address
                        0x000096f5    0x26  Code  Gb  serl_mk65.o [3]
_bsp_get_unique_identificator
                        0x000015ab    0x24  Code  Gb  K66BLEZ1_INIT_SYS.o [1]
_bsp_init               0x00005aad    0x46  Code  Gb  init_bsp.o [3]
_bsp_post_init          0x0002ade5     0x4  Code  Wk  inittask.o [3]
_bsp_pre_init           0x000059d1    0xdc  Code  Gb  init_bsp.o [3]
_bsp_rtc_io_init        0x000061d1     0xe  Code  Gb  init_gpio.o [3]
_bsp_sci0_init          0x0002ffc0    0x24  Data  Gb  init_sci.o [3]
_bsp_sci4_init          0x0002ffe4    0x24  Data  Gb  init_sci.o [3]
_bsp_sdcard0_init       0x0002fee0    0x10  Data  Gb  init_sdcard.o [3]
_bsp_serial_io_init     0x00006129    0xa8  Code  Gb  init_gpio.o [3]
_bsp_serial_irda_rx_init
                        0x00006225     0xc  Code  Gb  init_gpio.o [3]
_bsp_serial_irda_tx_init
                        0x00006221     0x4  Code  Gb  init_gpio.o [3]
_bsp_serial_rts_init    0x0000621d     0x4  Code  Gb  init_gpio.o [3]
_bsp_set_operation_mode
                        0x00005ff7     0x6  Code  Gb  bsp_cm.o [3]
_bsp_systimer_callback  0x00005af9     0x4  Code  Gb  init_bsp.o [3]
_call_main              0x00002fc5          Code  Gb  cmain.o [6]
_cfm                    0x00000400    0x10  Data  Gb  vectors.o [3]
_esdhc_close            0x00006f5d    0x2c  Code  Gb  esdhc.o [3]
_esdhc_get_card_type    0x000066bd   0x61e  Code  Lc  esdhc.o [3]
_esdhc_install          0x00006cdb    0xd8  Code  Gb  esdhc.o [3]
_esdhc_ioctl            0x00006fa1   0x656  Code  Gb  esdhc.o [3]
_esdhc_isr              0x000077c1   0x10c  Code  Lc  esdhc.o [3]
_esdhc_open             0x00006e05   0x156  Code  Gb  esdhc.o [3]
_esdhc_read             0x0000762d    0xd4  Code  Gb  esdhc.o [3]
_esdhc_send_command     0x00006491   0x22c  Code  Lc  esdhc.o [3]
_esdhc_uninstall        0x00006db5    0x50  Code  Gb  esdhc.o [3]
_esdhc_write            0x00007701    0xbe  Code  Gb  esdhc.o [3]
_int_default_isr        0x0000181d    0x7e  Code  Gb  int.o [3]
_int_disable            0x0000189b    0x1c  Code  Gb  int.o [3]
_int_enable             0x000018b7    0x24  Code  Gb  int.o [3]
_int_get_default_isr    0x000018db     0xa  Code  Gb  int.o [3]
_int_get_exception_handler
                        0x000018e5    0x3a  Code  Gb  int.o [3]
_int_get_isr            0x0000191f    0x38  Code  Gb  int.o [3]
_int_get_isr_data       0x00001957    0x3a  Code  Gb  int.o [3]
_int_get_vector_table   0x0000586b     0x6  Code  Gb  int_vtab.o [3]
_int_init               0x00001a6f    0x96  Code  Gb  int.o [3]
_int_install_isr        0x00001991    0xde  Code  Gb  int.o [3]
_int_install_kernel_isr
                        0x00011c29    0x70  Code  Gb  int_kisr.o [3]
_int_kernel_isr         0x0002c13f          Code  Gb  dispatch.o [3]
_int_set_vector_table   0x00005859    0x12  Code  Gb  int_vtab.o [3]
_io_dev_install         0x00009149    0x24  Code  Gb  io_inst.o [3]
_io_dev_install_drvif   0x00008e69   0x11e  Code  Gb  io_instx.o [3]
_io_dev_install_ext     0x00008f87   0x126  Code  Gb  io_instx.o [3]
_io_doprint             0x0000cced  0x11e0  Code  Gb  io_dopr.o [3]
_io_dtoe                0x0000f481   0x400  Code  Gb  io_fp.o [3]
_io_dtof                0x0000f891   0x444  Code  Gb  io_fp.o [3]
_io_dtog                0x0000fce9   0x884  Code  Gb  io_fp.o [3]
_io_fclose              0x0000ccb7    0x34  Code  Gb  io_fclos.o [3]
_io_feof                0x0000f455    0x12  Code  Gb  io_feof.o [3]
_io_ferror              0x000185a1     0xc  Code  Gb  io_ferr.o [3]
_io_fflush              0x00024291    0x3e  Code  Gb  io_fflsh.o [3]
_io_fgetc               0x00014311    0x40  Code  Gb  io_fgetc.o [3]
_io_fgetline            0x00011e97    0x96  Code  Gb  io_fgetl.o [3]
_io_fgets               0x000242cf    0x28  Code  Gb  io_fgets.o [3]
_io_fopen               0x000090b1    0x98  Code  Gb  io_fopen.o [3]
_io_fputc               0x00024a69    0x3a  Code  Gb  io_fputc.o [3]
_io_fscanf              0x0000f41b    0x3a  Code  Gb  io_fscan.o [3]
_io_fseek               0x000194f3    0xd8  Code  Gb  io_fseek.o [3]
_io_fungetc             0x00014351    0x26  Code  Gb  io_fung.o [3]
_io_get_dev_for_path    0x00011905    0xb4  Code  Gb  io_util.o [3]
_io_get_first_valid_fs  0x000117e3    0x2a  Code  Gb  io_util.o [3]
_io_get_fs_by_name      0x00011773    0x70  Code  Gb  io_util.o [3]
_io_get_fs_name         0x0001182f    0x56  Code  Gb  io_util.o [3]
_io_get_handle          0x00023f65    0x40  Code  Gb  io_ghand.o [3]
_io_init                0x000060f5    0x34  Code  Gb  io_init.o [3]
_io_ioctl               0x00011bb1    0x38  Code  Gb  io_ioctl.o [3]
_io_is_fs_valid         0x0001180d    0x22  Code  Gb  io_util.o [3]
_io_mfs_close           0x0001844b    0x2c  Code  Lc  mfs_fio.o [3]
_io_mfs_deinit          0x00018359     0x6  Code  Lc  mfs_fio.o [3]
_io_mfs_dir_close       0x00025e5f    0x18  Code  Gb  dir_read.o [3]
_io_mfs_dir_open        0x00025c01    0xb4  Code  Gb  dir_read.o [3]
_io_mfs_dir_read        0x00025cb5   0x1aa  Code  Gb  dir_read.o [3]
_io_mfs_drvif           0x00018584    0x1c  Data  Lc  mfs_fio.o [3]
_io_mfs_install         0x00018319    0x40  Code  Gb  mfs_fio.o [3]
_io_mfs_ioctl           0x00018575     0xe  Code  Lc  mfs_fio.o [3]
_io_mfs_lseek           0x0001852f    0x46  Code  Lc  mfs_fio.o [3]
_io_mfs_open            0x0001835f    0xec  Code  Lc  mfs_fio.o [3]
_io_mfs_read            0x00018477    0x46  Code  Lc  mfs_fio.o [3]
_io_mfs_write           0x000184bd    0x72  Code  Lc  mfs_fio.o [3]
_io_part_mgr_close      0x0001730d    0x28  Code  Gb  part_mgr.o [3]
_io_part_mgr_install    0x000170cd    0x76  Code  Gb  part_mgr.o [3]
_io_part_mgr_ioctl      0x00017485   0x49a  Code  Gb  part_mgr.o [3]
_io_part_mgr_open       0x00017171   0x19a  Code  Gb  part_mgr.o [3]
_io_part_mgr_read       0x00017335    0xa2  Code  Gb  part_mgr.o [3]
_io_part_mgr_uninstall_internal
                        0x00017145    0x2a  Code  Lc  part_mgr.o [3]
_io_part_mgr_write      0x000173d9    0xaa  Code  Gb  part_mgr.o [3]
_io_path_add            0x000119b9   0x10c  Code  Gb  io_util.o [3]
_io_printf              0x00023c79    0x2c  Code  Gb  io_pntf.o [3]
_io_read                0x000116f5    0x5a  Code  Gb  io_read.o [3]
_io_register_file_system
                        0x00011885    0x42  Code  Gb  io_util.o [3]
_io_rel2abs             0x00011ac5    0xec  Code  Gb  io_util.o [3]
_io_scanline            0x00010f9d   0x6ec  Code  Gb  io_scanl.o [3]
_io_sdcard_close        0x00016e5d     0x4  Code  Gb  sdcard.o [3]
_io_sdcard_csd_baudrate
                        0x00017087    0x24  Code  Gb  sdcard.o [3]
_io_sdcard_csd_baudrate::unit_tab
                        0x000170ac    0x10  Data  Lc  sdcard.o [3]
_io_sdcard_csd_baudrate::value_tab
                        0x000170bc    0x10  Data  Lc  sdcard.o [3]
_io_sdcard_csd_capacity
                        0x0001702d    0x5a  Code  Gb  sdcard.o [3]
_io_sdcard_esdhc_init   0x0002a7f1   0x360  Code  Gb  sdcard_esdhc.o [3]
_io_sdcard_esdhc_read_block
                        0x0002ab51    0x76  Code  Gb  sdcard_esdhc.o [3]
_io_sdcard_esdhc_write_block
                        0x0002abc7   0x13e  Code  Gb  sdcard_esdhc.o [3]
_io_sdcard_install      0x00016db5    0x60  Code  Gb  sdcard.o [3]
_io_sdcard_ioctl        0x00016e61    0x92  Code  Gb  sdcard.o [3]
_io_sdcard_open         0x00016e2d    0x30  Code  Gb  sdcard.o [3]
_io_sdcard_read_blocks  0x00016ef5    0x98  Code  Gb  sdcard.o [3]
_io_sdcard_uninstall    0x00016e15    0x16  Code  Lc  sdcard.o [3]
_io_sdcard_write_blocks
                        0x00016f8d    0xa0  Code  Gb  sdcard.o [3]
_io_serial_default_init
                        0x000078cd    0x44  Code  Gb  io_sinit.o [3]
_io_serial_int_addc     0x00007f99    0xc8  Code  Gb  serl_int.o [3]
_io_serial_int_close    0x00007ad9    0x74  Code  Gb  serl_int.o [3]
_io_serial_int_install  0x00007951    0x60  Code  Gb  serl_int.o [3]
_io_serial_int_ioctl    0x00007ee1    0xb8  Code  Gb  serl_int.o [3]
_io_serial_int_nextc    0x00008061    0x74  Code  Gb  serl_int.o [3]
_io_serial_int_open     0x000079b1   0x128  Code  Gb  serl_int.o [3]
_io_serial_int_read     0x00007b4d   0x27a  Code  Gb  serl_int.o [3]
_io_serial_int_write    0x00007dc9   0x116  Code  Gb  serl_int.o [3]
_io_snprintf            0x0000ac0b    0x2a  Code  Gb  io_spr.o [3]
_io_sprintf             0x0000abe5    0x26  Code  Gb  io_spr.o [3]
_io_sputc               0x0000ac35     0xa  Code  Gb  io_spr.o [3]
_io_sscanf              0x0000e21b    0x12  Code  Gb  io_sscan.o [3]
_io_strtolower          0x00011751    0x22  Code  Gb  io_util.o [3]
_io_unregister_file_system
                        0x000118c7    0x36  Code  Gb  io_util.o [3]
_io_vsnprintf           0x0000ac41    0x20  Code  Gb  io_vpr.o [3]
_io_write               0x0000cc95    0x22  Code  Gb  io_write.o [3]
_kinetis_mpu_disable    0x000060e1     0xe  Code  Gb  kinetis_mpu.o [3]
_klog_block_internal    0x000016b5    0x48  Code  Gb  klog.o [3]
_klog_context_switch_internal
                        0x00001745    0x48  Code  Gb  klog.o [3]
_klog_isr_end_internal  0x000017d9    0x3c  Code  Gb  klog.o [3]
_klog_isr_start_internal
                        0x0000178f    0x4a  Code  Gb  klog.o [3]
_klog_log               0x00001639    0x7c  Code  Gb  klog.o [3]
_klog_yield_internal    0x000016fd    0x48  Code  Gb  klog.o [3]
_kuart_int_deinit       0x00006341    0x1c  Code  Gb  serl_int_kuart.o [3]
_kuart_int_enable       0x0000635d    0x1a  Code  Gb  serl_int_kuart.o [3]
_kuart_int_err_isr      0x00006379    0x54  Code  Gb  serl_int_kuart.o [3]
_kuart_int_init         0x000062e5    0x5a  Code  Gb  serl_int_kuart.o [3]
_kuart_int_install      0x000062b9    0x26  Code  Gb  serl_int_kuart.o [3]
_kuart_int_putc         0x00006475    0x1c  Code  Gb  serl_int_kuart.o [3]
_kuart_int_rx_tx_isr    0x000063cd    0xa6  Code  Gb  serl_int_kuart.o [3]
_kuart_polled_deinit    0x000081d5    0x1e  Code  Gb  serl_pol_kuart.o [3]
_kuart_polled_init      0x000080d5   0x100  Code  Gb  serl_pol_kuart.o [3]
_kuart_polled_ioctl     0x000081f5   0x3ec  Code  Gb  serl_pol_kuart.o [3]
_lwevent_clear          0x00008931    0xb0  Code  Gb  lwevent.o [3]
_lwevent_create         0x000086a5   0x12c  Code  Gb  lwevent.o [3]
_lwevent_destroy        0x000087d1   0x160  Code  Gb  lwevent.o [3]
_lwevent_get_signalled  0x000089e1    0x4e  Code  Gb  lwevent.o [3]
_lwevent_set            0x00008a31   0x1b4  Code  Gb  lwevent.o [3]
_lwevent_wait_ticks     0x00008bed   0x252  Code  Gb  lwevent.o [3]
_lwlog_write            0x000034f5    0x66  Code  Gb  lwlog.o [3]
_lwlog_write_internal   0x00003435    0xc0  Code  Gb  lwlog.o [3]
_lwmem_alloc            0x000004dd   0x104  Code  Gb  lwmem.o [3]
_lwmem_alloc_at         0x000005e1   0x11e  Code  Gb  lwmem.o [3]
_lwmem_alloc_system     0x00000cc1   0x100  Code  Gb  lwmem.o [3]
_lwmem_alloc_system_align
                        0x00000dc1   0x14e  Code  Gb  lwmem.o [3]
_lwmem_alloc_system_align_from
                        0x00000f0f   0x14c  Code  Gb  lwmem.o [3]
_lwmem_alloc_system_from
                        0x00000bc1    0xfc  Code  Gb  lwmem.o [3]
_lwmem_alloc_system_zero
                        0x00001311   0x10a  Code  Gb  lwmem.o [3]
_lwmem_alloc_system_zero_from
                        0x00001207   0x10a  Code  Gb  lwmem.o [3]
_lwmem_alloc_zero       0x0000070b   0x112  Code  Gb  lwmem.o [3]
_lwmem_alloc_zero_from  0x0000081d   0x10e  Code  Gb  lwmem.o [3]
_lwmem_create_pool      0x0000092b    0xc6  Code  Gb  lwmem.o [3]
_lwmem_create_pool_mapped
                        0x000009f1    0x28  Code  Gb  lwmem.o [3]
_lwmem_free             0x00000a19   0x1a4  Code  Gb  lwmem.o [3]
_lwmem_get_next_block_internal
                        0x00001161    0x8a  Code  Gb  lwmem.o [3]
_lwmem_get_system_pool_id
                        0x000006ff     0xc  Code  Gb  lwmem.o [3]
_lwmem_init_internal    0x0000105b   0x106  Code  Gb  lwmem.o [3]
_lwmem_set_type         0x000011eb     0xa  Code  Gb  lwmem.o [3]
_lwmem_transfer_internal
                        0x000011f5     0x8  Code  Gb  lwmem.o [3]
_lwmem_transfer_td_internal
                        0x000011fd     0xa  Code  Gb  lwmem.o [3]
_lwmsgq_init            0x0000a571   0x13e  Code  Gb  lwmsgq.o [3]
_lwmsgq_receive         0x0000a6af   0x278  Code  Gb  lwmsgq.o [3]
_lwmsgq_send            0x0000a927   0x248  Code  Gb  lwmsgq.o [3]
_lwsem_create           0x00003565    0xfa  Code  Gb  lwsem.o [3]
_lwsem_destroy          0x0000365f   0x180  Code  Gb  lwsem.o [3]
_lwsem_post             0x000037df   0x156  Code  Gb  lwsem.o [3]
_lwsem_wait             0x00003935   0x124  Code  Gb  lwsem.o [3]
_lwsem_wait_ticks       0x00003a59   0x17e  Code  Gb  lwsem.o [3]
_main                   0x00002fcf          Code  Gb  cmain.o [6]
_mem_test_and_set       0x0002c253          Code  Gb  dispatch.o [3]
_mfs_validate_device    0x00019473    0x80  Code  Gb  mfs_valdev.o [3]
_months_abbrev          0x1fff04c8    0x30  Data  Gb  MonitorVT100.o [1]
_mqx                    0x00004c41   0x268  Code  Gb  mqx.o [3]
_mqx_api_call           0x0002c039          Code  Gb  dispatch.o [3]
_mqx_context_switch_internal
                        0x00004eed    0x90  Code  Gb  mqx.o [3]
_mqx_exit               0x00004ea9    0x44  Code  Gb  mqx.o [3]
_mqx_exit_jump_buffer_internal
                        0x1fff0418    0x80  Data  Gb  mqx.o [3]
_mqx_idle_task          0x0002ad35    0x44  Code  Gb  idletask.o [3]
_mqx_init_kernel_data_internal
                        0x00005005   0x176  Code  Gb  mqx.o [3]
_mqx_init_task          0x0002ad79    0x6c  Code  Gb  inittask.o [3]
_mqx_kernel_data        0x1fff0400     0x4  Data  Gb  mqx.o [3]
_mqx_set_cpu_type       0x00004f7d     0x8  Code  Gb  mqx.o [3]
_mqx_set_exit_handler   0x00004f85    0x4a  Code  Gb  mqx.o [3]
_mqx_set_io_component_handle
                        0x00004fcf    0x36  Code  Gb  mqx.o [3]
_mqx_system_stack       0x1fff0404     0x4  Data  Gb  mqx.o [3]
_mqx_vendor             0x000051cc     0x4  Data  Gb  mqx.o [3]
_mqx_version_number     0x000051c8     0x4  Data  Gb  mqx.o [3]
_mqx_zero_tick_struct   0x0002ff24     0xc  Data  Gb  mqx.o [3]
_msg_cleanup            0x00015ad5   0x2a2  Code  Gb  msg.o [3]
_msg_create_component   0x00015921   0x1b4  Code  Gb  msg.o [3]
_msgpool_create         0x00015761   0x1ba  Code  Gb  msgpool.o [3]
_msgq_open              0x00015611   0x14c  Code  Gb  msgq.o [3]
_mutex_cleanup          0x0001b15d   0x1c8  Code  Gb  mutex.o [3]
_mutex_init             0x0001abd9   0x27e  Code  Gb  mutex.o [3]
_mutex_lock             0x0001ae57   0x302  Code  Gb  mutex.o [3]
_mutex_unlock           0x0001b32d   0x174  Code  Gb  mutex.o [3]
_nvic_int_disable       0x0000867d    0x1e  Code  Gb  nvic.o [3]
_nvic_int_enable        0x0000865f    0x1e  Code  Gb  nvic.o [3]
_nvic_int_init          0x000085f1    0x6e  Code  Gb  nvic.o [3]
_opened_fs_table        0x20008bbc    0x30  Data  Lc  io_util.o [3]
_pend_svc               0x0002c0cb          Code  Gb  dispatch.o [3]
_pmgr_clear_part_info   0x000179cb    0xd0  Code  Gb  part_mgr.o [3]
_pmgr_host_to_disk      0x00017a9b    0xe4  Code  Gb  part_mgr.o [3]
_pmgr_validate_mbr      0x00017921    0xaa  Code  Gb  part_mgr.o [3]
_psp_add_element_to_array
                        0x00005bf9    0x34  Code  Gb  psp_mat3.o [3]
_psp_add_ticks          0x00004b7d    0x44  Code  Gb  psp_tiad.o [3]
_psp_build_stack_frame  0x00003c29    0x58  Code  Gb  stack_bu.o [3]
_psp_destroy_stack_frame
                        0x00003c27     0x2  Code  Gb  stack_de.o [3]
_psp_div_128_by_32      0x00005c2d    0xe2  Code  Gb  psp_mat2.o [3]
_psp_exception_return   0x0002c207          Code  Gb  dispatch.o [3]
_psp_get_stack_start    0x00003c21     0x6  Code  Gb  stack_st.o [3]
_psp_init_readyqs       0x000058b9   0x10a  Code  Gb  sc_irdyq.o [3]
_psp_int_init           0x00005dc3    0x12  Code  Gb  psp_iinit.o [3]
_psp_int_install        0x00007925    0x2c  Code  Gb  int_inst.o [3]
_psp_msecs_to_ticks     0x00005d2d    0x58  Code  Gb  psp_msti.o [3]
_psp_msecs_to_ticks_quick
                        0x000054c9    0x64  Code  Gb  psp_mstiq.o [3]
_psp_msecs_to_ticks_quick::heuristic
                        0x20008d30     0x4  Data  Lc  psp_mstiq.o [3]
_psp_msecs_to_ticks_quick::ms_per_tick
                        0x20008d2c     0x4  Data  Lc  psp_mstiq.o [3]
_psp_mul_128_by_32      0x00005b69    0x8e  Code  Gb  psp_mat1.o [3]
_psp_normalize_ticks    0x000056a1    0x30  Code  Gb  psp_tinm.o [3]
_psp_pop_fp_context     0x00000455          Code  Gb  support.o [3]
_psp_push_fp_context    0x00000441          Code  Gb  support.o [3]
_psp_save_fp_context_internal
                        0x0002c251          Code  Gb  dispatch.o [3]
_psp_seconds_to_ticks   0x00005d11    0x1c  Code  Gb  psp_seti.o [3]
_psp_set_kernel_disable_level
                        0x00005879    0x40  Code  Gb  sc_irdyq.o [3]
_psp_subtract_ticks     0x0000552d    0x36  Code  Gb  psp_tisu.o [3]
_psp_ticks_to_microseconds
                        0x00005605    0x94  Code  Gb  psp_tius.o [3]
_psp_ticks_to_milliseconds
                        0x00005569    0x96  Code  Gb  psp_tims.o [3]
_psp_ticks_to_time      0x00004bc1    0x80  Code  Gb  psp_tkti.o [3]
_psp_time_to_ticks      0x000056d1    0x26  Code  Gb  psp_tiol.o [3]
_queue_enqueue          0x00020c7d    0x40  Code  Gb  queue.o [3]
_queue_head             0x00020cbd    0x1e  Code  Gb  queue.o [3]
_queue_init             0x00020c71     0xc  Code  Gb  queue.o [3]
_queue_is_empty         0x00020d23     0xa  Code  Gb  queue.o [3]
_queue_next             0x00020cdb    0x24  Code  Gb  queue.o [3]
_queue_unlink           0x00020cff    0x24  Code  Gb  queue.o [3]
_rtc_get_time           0x000062a7     0xa  Code  Gb  krtc.o [3]
_rtc_init               0x00006231    0x5a  Code  Gb  krtc.o [3]
_rtc_set_time           0x0000628b    0x1c  Code  Gb  krtc.o [3]
_sched_boost_priority_internal
                        0x000052af    0x66  Code  Gb  sched.o [3]
_sched_check_scheduler_internal
                        0x0002c019          Code  Gb  dispatch.o [3]
_sched_execute_scheduler_internal
                        0x0002c035          Code  Gb  dispatch.o [3]
_sched_get_max_priority_on_q_internal
                        0x000053ed    0x1e  Code  Gb  sched.o [3]
_sched_insert_priorityq_internal
                        0x0000538b    0x62  Code  Gb  sched.o [3]
_sched_run_internal     0x0002c015          Code  Gb  dispatch.o [3]
_sched_set_priority_internal
                        0x0000540b    0xba  Code  Gb  sched.o [3]
_sched_start_internal   0x0002c011          Code  Gb  dispatch.o [3]
_sched_unboost_priority_internal
                        0x00005315    0x76  Code  Gb  sched.o [3]
_sched_yield            0x000051d1    0xde  Code  Gb  sched.o [3]
_sleep_p3               0x0002c299          Code  Gb  dispatch.o [3]
_sleep_p3_end           0x0002c2df          Code  Gb  dispatch.o [3]
_sleep_p3_loop          0x0002c29b          Code  Gb  dispatch.o [3]
_sleep_p3_loop_ram      0x1fff040c     0x4  Data  Gb  mqx.o [3]
_sleep_p3_ram           0x1fff0408     0x4  Data  Gb  mqx.o [3]
_sleep_p3_start         0x0002c291          Code  Gb  dispatch.o [3]
_sleep_p3_wfi           0x0002c2c9          Code  Gb  dispatch.o [3]
_sleep_p3_wfi_ram       0x1fff0410     0x4  Data  Gb  mqx.o [3]
_strnlen                0x0001e109    0x1a  Code  Gb  strnlen.o [3]
_svc_handler            0x0002c03f          Code  Gb  dispatch.o [3]
_task_block             0x0002c03b          Code  Gb  dispatch.o [3]
_task_create            0x00001e49     0x4  Code  Gb  task.o [3]
_task_create_blocked    0x00001e4d   0x296  Code  Gb  task.o [3]
_task_create_internal   0x00001b15   0x32e  Code  Gb  task.o [3]
_task_exit_function_internal
                        0x0000277b   0x264  Code  Gb  task.o [3]
_task_fill_stack_internal
                        0x00002e99    0x22  Code  Gb  task.o [3]
_task_get_environment   0x00002265   0x108  Code  Gb  task.o [3]
_task_get_error         0x00002649    0x16  Code  Gb  task.o [3]
_task_get_id            0x0000265f     0xc  Code  Gb  task.o [3]
_task_get_id_from_name  0x00002371    0x5e  Code  Gb  task.o [3]
_task_get_parameter     0x000023cf    0x16  Code  Gb  task.o [3]
_task_get_td            0x0000266b    0xa4  Code  Gb  task.o [3]
_task_init_internal     0x000029e5   0x4b4  Code  Gb  task.o [3]
_task_ready             0x000023e9   0x206  Code  Gb  task.o [3]
_task_ready_internal    0x00002ebb    0x6e  Code  Gb  task.o [3]
_task_set_environment   0x000020e5   0x17c  Code  Gb  task.o [3]
_task_set_error         0x0000270f    0x6c  Code  Gb  task.o [3]
_task_set_error_td_internal
                        0x00002f2f    0x54  Code  Gb  task.o [3]
_task_stop_preemption   0x000025f1    0x58  Code  Gb  task.o [3]
_task_sync_priority_internal
                        0x00002f2d     0x2  Code  Gb  task.o [3]
_taskq_create           0x0000916d   0x100  Code  Gb  taskq.o [3]
_taskq_destroy          0x0000926d   0x176  Code  Gb  taskq.o [3]
_taskq_resume           0x00009513   0x1da  Code  Gb  taskq.o [3]
_taskq_suspend          0x000093e3   0x130  Code  Gb  taskq.o [3]
_time_days_in_month_internal
                        0x00004b48    0x34  Data  Gb  time.o [3]
_time_delay             0x00003d9d   0x142  Code  Gb  time.o [3]
_time_delay_for         0x00003edf   0x136  Code  Gb  time.o [3]
_time_delay_internal    0x00004015    0x7c  Code  Gb  time.o [3]
_time_delay_ticks       0x00004091   0x124  Code  Gb  time.o [3]
_time_diff_microseconds
                        0x000041d3    0x1e  Code  Gb  time.o [3]
_time_diff_milliseconds
                        0x000041b5    0x1e  Code  Gb  time.o [3]
_time_from_date         0x000041f1   0x3a2  Code  Gb  time.o [3]
_time_get               0x00004593    0x78  Code  Gb  time.o [3]
_time_get_microseconds  0x00004695    0x34  Code  Gb  time.o [3]
_time_get_ticks         0x0000461d    0x78  Code  Gb  time.o [3]
_time_get_ticks_per_sec
                        0x0000460b     0xc  Code  Gb  time.o [3]
_time_notify_kernel     0x000046c9   0x1fa  Code  Gb  time.o [3]
_time_set               0x000048c3    0xb6  Code  Gb  time.o [3]
_time_set_hwtick_function
                        0x00004985    0x10  Code  Gb  time.o [3]
_time_set_hwticks_per_tick
                        0x00004995     0xc  Code  Gb  time.o [3]
_time_set_ticks_per_sec
                        0x00004979     0xc  Code  Gb  time.o [3]
_time_to_date           0x000049a1   0x166  Code  Gb  time.o [3]
_usb_dci_usbhs_add_dTD  0x0002b17d   0x152  Code  Gb  ehci_dev_main.o [3]
_usb_dci_usbhs_chip_initialize
                        0x0002b04f   0x12e  Code  Gb  ehci_dev_main.o [3]
_usb_dci_usbhs_isr      0x0002b6ad   0x250  Code  Lc  ehci_dev_main.o [3]
_usb_dci_usbhs_process_tr_complete
                        0x0002b2d5   0x3d8  Code  Gb  ehci_dev_main.o [3]
_usb_dev_task::msg      0x20009054    0x10  Data  Lc  usb_dev.o [3]
_usb_dev_task_stun      0x0001bb91    0x98  Code  Lc  usb_dev.o [3]
_usb_device_call_service
                        0x0001bc29    0x2e  Code  Gb  usb_dev.o [3]
_usb_ehci_dev_function_table
                        0x0002ff64    0x50  Data  Gb  device_ehci_interface.o [3]
_write_log_to_file      0x00009f37    0x80  Code  Lc  App_logger.o [1]
abs                     0x000143a5     0x8  Code  Gb  abs.o [4]
adc0_ch_cfg             0x0002bfc0     0x8  Data  Gb  K66BLEZ1_ADC.o [1]
adc0_results            0x1fff0b40     0xc  Data  Gb  K66BLEZ1_ADC.o [1]
adc1_ch_cfg             0x0002c000     0x8  Data  Gb  K66BLEZ1_ADC.o [1]
adc1_results            0x1fff0b80     0xc  Data  Gb  K66BLEZ1_ADC.o [1]
adc_async_control_callback
                        0x1fffdac0     0x4  Data  Lc  K66BLEZ1_ADC.o [1]
adc_currents_measure_callback
                        0x1fffdab8     0x4  Data  Lc  K66BLEZ1_ADC.o [1]
adc_filtering_callback  0x1fffdabc     0x4  Data  Lc  K66BLEZ1_ADC.o [1]
adc_state               0x1fffdab0     0x8  Data  Lc  K66BLEZ1_ADC.o [1]
adcs                    0x1fffda94    0x1c  Data  Gb  K66BLEZ1_ADC.o [1]
alarm_period            0x20008bb8     0x4  Data  Lc  krtc.o [3]
alarm_time              0x20008bb4     0x4  Data  Lc  krtc.o [3]
app_log                 0x1fff2308  0x3500  Data  Gb  App_logger.o [1]
ascii_to_hex            0x0000c8a9    0x2a  Code  Gb  Parameters.o [1]
bldcs_cbl               0x1ffffdbc     0xc  Data  Gb  U3HB01_main.o [1]
bsp_usb_dev_board_init  0x00023c11    0x44  Code  Wk  usb_dev_bsp.o [3]
bsp_usb_dev_init        0x00022be5   0x1a0  Code  Gb  usb_dev_bsp.o [3]
calibr_acc_a            0x1ffffc38     0x4  Data  Lc  U3HB01_DRV8305.o [1]
calibr_acc_b            0x1ffffc3c     0x4  Data  Lc  U3HB01_DRV8305.o [1]
calibr_acc_c            0x1ffffc40     0x4  Data  Lc  U3HB01_DRV8305.o [1]
calibr_cnt              0x1ffffc44     0x4  Data  Lc  U3HB01_DRV8305.o [1]
can_cbl                 0x1ffffc10    0x10  Data  Gb  U3HB01_CAN.o [1]
can_msg_pool_id         0x1fffdae8     0x4  Data  Gb  K66BLEZ1_CAN.o [1]
can_tx_event            0x1fffdac4    0x24  Data  Gb  K66BLEZ1_CAN.o [1]
can_tx_queue_id         0x200091de     0x2  Data  Gb  K66BLEZ1_CAN.o [1]
cdc_device_array        0x20008c54    0xd8  Data  Gb  usb_cdc.o [3]
cdc_vcom1_cic_ep        0x1fff05c8     0x8  Data  Gb  usb_device_descriptor.o [1]
cdc_vcom1_dic_ep        0x1fff05d0    0x10  Data  Gb  usb_device_descriptor.o [1]
cdc_vcom1_interfaces    0x1fff05e0    0x18  Data  Lc  usb_device_descriptor.o [1]
cdc_vcom2_cic_ep        0x1fff05f8     0x8  Data  Gb  usb_device_descriptor.o [1]
cdc_vcom2_dic_ep        0x1fff0600    0x10  Data  Gb  usb_device_descriptor.o [1]
cdc_vcom2_interfaces    0x1fff0610    0x18  Data  Lc  usb_device_descriptor.o [1]
clear_acc_fl            0x200091fa     0x1  Data  Lc  U3HB01_DRV8305.o [1]
cnv                     0x1ffffd98     0x4  Data  Lc  U3HB01_Hall_sensor.o [1]
com_handle              0x1fffdc3c     0x4  Data  Lc  MFS_man.o [1]
cpu_usage               0x1fffdc38     0x4  Data  Gb  Main.o [1]
crc_tbl                 0x0002c4ac   0x200  Data  Lc  CRC_utils.o [1]
curr_acc_cnt            0x1ffffc68     0x4  Data  Lc  U3HB01_DRV8305.o [1]
current_a               0x1ffffe6c     0x4  Data  Gb  U3HB01_main.o [1]
current_b               0x1ffffe70     0x4  Data  Gb  U3HB01_main.o [1]
current_c               0x1ffffe74     0x4  Data  Gb  U3HB01_main.o [1]
currents_selector       0x1fff04fc    0x18  Data  Gb  U3HB01_DRV8305.o [1]
dc_current              0x1ffffe78     0x4  Data  Gb  U3HB01_main.o [1]
dc_volt_filter          0x1ffffebc     0x8  Data  Gb  U3HB01_main.o [1]
dc_voltage              0x1ffffe88     0x4  Data  Gb  U3HB01_main.o [1]
delta                   0x1ffffd94     0x4  Data  Lc  U3HB01_Hall_sensor.o [1]
desc_callback           0x1fff0870    0x14  Data  Gb  usb_device_descriptor.o [1]
device_pin_detect_service
                        0x200090f4     0x4  Data  Gb  ehci_dev_main.o [3]
digits                  0x00013dcc    0x28  Data  Lc  xstoul.o [4]
dim_curve               0x0002fde0   0x100  Data  Gb  U3HB01_WS2812B.o [1]
dmul                    0x00009731    0x5a  Code  Lc  xdtento.o [5]
drv_temp                0x1ffffe80     0x4  Data  Gb  U3HB01_main.o [1]
drv_temp_filter         0x1ffffea4     0x8  Data  Gb  U3HB01_main.o [1]
dummy_rx                0x200091f9     0x1  Data  Lc  K66BLEZ1_DMA.o [1]
dwvar                   0x0002fb3c   0x2a4  Data  Gb  U3HB01_Params.o [1]
ebuf_r                  0x1ffffcfc    0x80  Data  Gb  U3HB01_ExtEncoder.o [1]
ebuf_w                  0x1ffffc7c    0x80  Data  Gb  U3HB01_ExtEncoder.o [1]
enable_led_strip        0x1fffff34     0x4  Data  Gb  U3HB01_WS2812B.o [1]
entry_str               0x0002ed0c     0xc  Data  Gb  MonitorVT100.o [1]
event_data_received     0x20008f98     0xc  Data  Gb  usb_phdc.o [3]
exit                    0x000004d3     0x2  Code  Gb  comp.o [3]
ext_enc_angle           0x1ffffe9c     0x4  Data  Gb  U3HB01_main.o [1]
ext_enc_errors          0x1ffffea0     0x4  Data  Gb  U3HB01_main.o [1]
ext_enc_pack            0x1ffffd7c     0x8  Data  Gb  U3HB01_ExtEncoder.o [1]
file_log_queue          0x1fff5844   0x440  Data  Lc  App_logger.o [1]
filesystem_handle       0x1fffdc48     0x4  Data  Lc  MFS_man.o [1]
flog_cbl                0x1fff5818    0x2c  Data  Lc  App_logger.o [1]
fms_flags               0x1fffda84     0x4  Data  Lc  freemaster_serial.o [1]
format_table            0x000225b0    0xe0  Data  Lc  mfs_format.o [3]
free                    0x000004cf     0x4  Code  Gb  comp.o [3]
frm_serial_drv          0x1ffffc0c     0x4  Data  Gb  Task_FreeMaster.o [1]
g_abstract_state        0x200091e4     0x2  Data  Lc  USB_virtual_com1.o [1]
g_abstract_state        0x200091e8     0x2  Data  Lc  USB_virtual_com2.o [1]
g_alternate_interface   0x20008ae8     0x4  Data  Lc  usb_device_descriptor.o [1]
g_app_errors            0x1ffffda8     0x4  Data  Gb  U3HB01_main.o [1]
g_atten                 0x2000107c     0x4  Data  Lc  U3HB01_WS2812B.o [1]
g_audio_class           0x20008d38    0x5c  Data  Gb  usb_audio.o [3]
g_bldc_active           0x1ffffdac     0x4  Data  Gb  U3HB01_main.o [1]
g_bldc_forcebrake       0x1ffffdb0     0x4  Data  Gb  U3HB01_main.o [1]
g_calibr_time           0x1ffffdb4     0x8  Data  Gb  U3HB01_main.o [1]
g_composite_device      0x20008a8c    0x5c  Data  Gb  USB_composite_dev.o [1]
g_config_descriptor     0x1fff065c    0x90  Data  Gb  usb_device_descriptor.o [1]
g_country_code          0x200091e6     0x2  Data  Lc  USB_virtual_com1.o [1]
g_country_code          0x200091ea     0x2  Data  Lc  USB_virtual_com2.o [1]
g_device_descriptor     0x1fff0648    0x14  Data  Gb  usb_device_descriptor.o [1]
g_device_qualifier_descriptor
                        0x1fff06ec     0xc  Data  Gb  usb_device_descriptor.o [1]
g_ehci_data_ptr         0x200090f8     0x4  Data  Gb  ehci_dev_main.o [3]
g_ehci_dev              0x200090fc    0xd0  Data  Gb  ehci_dev_main.o [3]
g_en_dma                0x1fffff30     0x4  Data  Lc  U3HB01_SPISysBus.o [1]
g_fmstr_rate_src        0x1ffffe94     0x4  Data  Gb  U3HB01_main.o [1]
g_fmstr_smpls_period    0x1ffffe98     0x4  Data  Gb  U3HB01_main.o [1]
g_hid_class             0x20008d94    0x40  Data  Gb  usb_hid.o [3]
g_languages             0x1fff0864     0xc  Data  Gb  usb_device_descriptor.o [1]
g_line_coding           0x1fff0884     0x8  Data  Lc  USB_virtual_com1.o [1]
g_line_coding           0x1fff088c     0x8  Data  Lc  USB_virtual_com2.o [1]
g_msc_class             0x20008dd4    0x90  Data  Gb  usb_msc.o [3]
g_msc_scsi              0x2000906c    0x88  Data  Gb  usb_msc_scsi.o [3]
g_other_speed_config_descriptor
                        0x1fff06f8    0x90  Data  Gb  usb_device_descriptor.o [1]
g_phdc_class            0x20008e64   0x134  Data  Gb  usb_phdc.o [3]
g_pstn                  0x1fff08cc    0x1c  Data  Gb  usb_cdc_pstn.o [3]
g_serial_state_buf      0x1fff08e8     0xc  Data  Gb  usb_cdc_pstn.o [3]
g_standard_request      0x1fff0940    0x34  Data  Lc  usb_framework.o [3]
g_std_desc_size         0x1fff0830     0x8  Data  Gb  usb_device_descriptor.o [1]
g_std_descriptors       0x1fff0810    0x20  Data  Gb  usb_device_descriptor.o [1]
g_string_desc_size      0x1fff0838     0x8  Data  Gb  usb_device_descriptor.o [1]
g_string_descriptors    0x1fff0840    0x18  Data  Gb  usb_device_descriptor.o [1]
g_usb_dev               0x20008fa4    0xac  Data  Lc  usb_dev.o [3]
g_usb_dev_data_ptr      0x20009050     0x4  Data  Gb  usb_dev.o [3]
g_validate_request      0x1fff0918    0x28  Data  Lc  usb_framework.o [3]
hall_commutation_callback
                        0x1ffffd90     0x4  Data  Lc  U3HB01_Hall_sensor.o [1]
hall_commutation_tbl    0x0002f6c0    0x48  Data  Lc  U3HB01_Hall_BLDC.o [1]
hall_deltas             0x1fff0534    0x90  Data  Lc  U3HB01_Hall_sensor.o [1]
hall_inputs             0x1ffffe5c     0x4  Data  Gb  U3HB01_main.o [1]
hall_position_control_callback
                        0x1ffffd88     0x4  Data  Lc  U3HB01_Hall_sensor.o [1]
hall_speed_control_callback
                        0x1ffffd8c     0x4  Data  Lc  U3HB01_Hall_sensor.o [1]
hall_states             0x1fff0514    0x20  Data  Lc  U3HB01_Hall_sensor.o [1]
hccbl                   0x1ffffdc8    0x58  Data  Gb  U3HB01_main.o [1]
hstate                  0x1ffffd9c     0x4  Data  Lc  U3HB01_Hall_sensor.o [1]
hwtimer_callback_reg    0x00005ed7    0x14  Code  Gb  hwtimer.o [3]
hwtimer_deinit          0x00005e1b    0x42  Code  Gb  hwtimer.o [3]
hwtimer_get_modulo      0x00005eb5     0x6  Code  Gb  hwtimer.o [3]
hwtimer_get_time        0x00005ebb    0x1c  Code  Gb  hwtimer.o [3]
hwtimer_init            0x00005dd5    0x46  Code  Gb  hwtimer.o [3]
hwtimer_set_freq        0x00005e5d    0x3e  Code  Gb  hwtimer.o [3]
hwtimer_start           0x00005e9b    0x1a  Code  Gb  hwtimer.o [3]
hwtimer_systick_deinit  0x0002ae63    0x20  Code  Lc  hwtimer_systick.o [3]
hwtimer_systick_get_time
                        0x0002aebb    0x42  Code  Lc  hwtimer_systick.o [3]
hwtimer_systick_init    0x0002ae15    0x4e  Code  Lc  hwtimer_systick.o [3]
hwtimer_systick_isr     0x0002ade9    0x2c  Code  Lc  hwtimer_systick.o [3]
hwtimer_systick_set_div
                        0x0002ae83    0x1e  Code  Lc  hwtimer_systick.o [3]
hwtimer_systick_start   0x0002aea1     0xe  Code  Lc  hwtimer_systick.o [3]
hwtimer_systick_stop    0x0002aeaf     0xc  Code  Lc  hwtimer_systick.o [3]
ia                      0x1ffffc4c     0x4  Data  Lc  U3HB01_DRV8305.o [1]
ia_acc                  0x1ffffc5c     0x4  Data  Lc  U3HB01_DRV8305.o [1]
ib                      0x1ffffc50     0x4  Data  Lc  U3HB01_DRV8305.o [1]
ib_acc                  0x1ffffc60     0x4  Data  Lc  U3HB01_DRV8305.o [1]
ic                      0x1ffffc54     0x4  Data  Lc  U3HB01_DRV8305.o [1]
ic_acc                  0x1ffffc64     0x4  Data  Lc  U3HB01_DRV8305.o [1]
idc                     0x1ffffc58     0x4  Data  Lc  U3HB01_DRV8305.o [1]
ilog2                   0x00017b81    0x36  Code  Gb  mfs_misc.o [3]
init_ADC_DMA_cbl        0x0002d974    0x20  Data  Gb  K66BLEZ1_ADC.o [1]
init_hardware           0x000004d9     0x4  Code  Gb  init_hw.o [3]
inquiry_info            0x1fff08f4    0x24  Data  Gb  usb_msc_scsi.o [3]
int_temp                0x1ffffe7c     0x4  Data  Gb  U3HB01_main.o [1]
int_temp_filter         0x1ffffeb4     0x8  Data  Gb  U3HB01_main.o [1]
isalpha                 0x0000e14d    0x14  Code  Gb  isxxx.o [4]
isdigit                 0x0000e22d     0xa  Code  Gb  isdigit.o [4]
isgraph                 0x0000f2f9    0x30  Code  Gb  isgraph.o [4]
ispunct                 0x0000e161    0x14  Code  Gb  isxxx.o [4]
isspace                 0x0000e175    0x14  Code  Gb  isxxx.o [4]
lcbl                    0x1fffff54  0x1128  Data  Lc  U3HB01_WS2812B.o [1]
ledsm_cbl               0x1fffdb8c    0x10  Data  Gb  LED_control.o [1]
lfn_wchar_offset        0x0001f054    0x34  Data  Lc  mfs_lfn.o [3]
localeconv              0x00014c63    0x16  Code  Gb  localeconv.o [4]
log_cbl                 0x1fff5808    0x10  Data  Lc  App_logger.o [1]
log_sem                 0x1fff22a4    0x1c  Data  Lc  App_logger.o [1]
longjmp                 0x00005841          Code  Gb  setjmp.o [5]
lower_hex_string        0x0000deec    0x14  Data  Lc  io_dopr.o [3]
main                    0x00003d11    0x14  Code  Gb  mqx_main.o [3]
malloc                  0x000004cb     0x4  Code  Gb  comp.o [3]
mem_reverse             0x00023859    0x46  Code  Gb  mfs_unicode.o [3]
memchr                  0x00014bd1          Code  Gb  memchr.o [6]
mkw_buf                 0x1fffdc4c    0x80  Data  Lc  MKW40_Channel.o [1]
mode_param_header       0x20009064     0x8  Data  Gb  usb_msc_scsi.o [3]
months                  0x00025f04    0x34  Data  Lc  dir_read.o [3]
mot_PWM_lev             0x200091e2     0x2  Data  Gb  U3HB01_main.o [1]
mot_speed_rps           0x1ffffe8c     0x4  Data  Gb  U3HB01_main.o [1]
mot_speed_rps_raw       0x1ffffe90     0x4  Data  Gb  U3HB01_main.o [1]
mot_temp_filter         0x1ffffeac     0x8  Data  Gb  U3HB01_main.o [1]
motor_temp              0x1ffffe84     0x4  Data  Gb  U3HB01_main.o [1]
msc_format_unit_command
                        0x0002340d    0x64  Code  Gb  usb_msc_scsi.o [3]
msc_inquiry_command     0x0002309f    0x3c  Code  Gb  usb_msc_scsi.o [3]
msc_mode_select_command
                        0x00023285    0x52  Code  Gb  usb_msc_scsi.o [3]
msc_mode_sense_command  0x00023249    0x3c  Code  Gb  usb_msc_scsi.o [3]
msc_prevent_allow_medium_removal
                        0x00023471    0x86  Code  Gb  usb_msc_scsi.o [3]
msc_read_capacity_command
                        0x000232e5    0x4a  Code  Gb  usb_msc_scsi.o [3]
msc_read_command        0x000230db    0x7e  Code  Gb  usb_msc_scsi.o [3]
msc_read_format_capacity_command
                        0x00023331    0xdc  Code  Gb  usb_msc_scsi.o [3]
msc_request_sense_command
                        0x00023069    0x36  Code  Gb  usb_msc_scsi.o [3]
msc_send_diagnostic_command
                        0x000234f7    0x3a  Code  Gb  usb_msc_scsi.o [3]
msc_start_stop_unit_command
                        0x00023531    0x6c  Code  Gb  usb_msc_scsi.o [3]
msc_test_unit_ready_command
                        0x000231d5    0x3a  Code  Gb  usb_msc_scsi.o [3]
msc_thirteen_cases_check
                        0x00022d85   0x24e  Code  Gb  usb_msc_scsi.o [3]
msc_unsupported_command
                        0x0002359d    0x1a  Code  Gb  usb_msc_scsi.o [3]
msc_verify_command      0x0002320f    0x3a  Code  Gb  usb_msc_scsi.o [3]
msc_write_command       0x00023159    0x7c  Code  Gb  usb_msc_scsi.o [3]
ndigs                   0x00013df4    0x28  Data  Lc  xstoul.o [4]
ovrc_cbl                0x1ffffe20    0x28  Data  Gb  U3HB01_main.o [1]
ovrf_evt                0x1ffffda0     0x4  Data  Lc  U3HB01_Hall_sensor.o [1]
parmenu                 0x0002fafc    0x40  Data  Gb  U3HB01_Params.o [1]
partition_handle        0x1fffdc44     0x4  Data  Lc  MFS_man.o [1]
pcm_bTrgVarSigned       0x200091f3     0x1  Data  Lc  freemaster_rec.o [1]
pcm_dwRecEndBuffPtr     0x1fff5d08     0x4  Data  Gb  freemaster_rec.o [1]
pcm_dwRecWritePtr       0x1fff5d04     0x4  Data  Gb  freemaster_rec.o [1]
pcm_nAppCmd             0x200091ed     0x1  Data  Lc  freemaster_appcmd.o [1]
pcm_nAppCmdLen          0x200091cc     0x2  Data  Lc  freemaster_appcmd.o [1]
pcm_nAppCmdResult       0x200091ee     0x1  Data  Lc  freemaster_appcmd.o [1]
pcm_nAppCmdResultDataLen
                        0x200091ef     0x1  Data  Lc  freemaster_appcmd.o [1]
pcm_nRecBuffAddr        0x1fff5d14     0x4  Data  Lc  freemaster_rec.o [1]
pcm_nRecTriggerMode     0x200091f0     0x1  Data  Gb  freemaster_rec.o [1]
pcm_nRecVarCount        0x200091f1     0x1  Data  Gb  freemaster_rec.o [1]
pcm_nScopeVarCount      0x200091f4     0x1  Data  Lc  freemaster_scope.o [1]
pcm_nTrgVarAddr         0x1fff5d0c     0x4  Data  Lc  freemaster_rec.o [1]
pcm_nTrgVarSize         0x200091f2     0x1  Data  Lc  freemaster_rec.o [1]
pcm_nTsaBuffAddr        0x1fffda90     0x4  Data  Lc  freemaster_tsa.o [1]
pcm_nTsaTableIndex      0x200091dc     0x2  Data  Lc  freemaster_tsa.o [1]
pcm_pAppCmdBuff         0x1fff5c84    0x20  Data  Lc  freemaster_appcmd.o [1]
pcm_pAppCmdCallFunc     0x1fff5cb0    0x28  Data  Lc  freemaster_appcmd.o [1]
pcm_pAppCmdCallId       0x1fff5ca4     0xc  Data  Lc  freemaster_appcmd.o [1]
pcm_pCommBuffer         0x1fffda44    0x40  Data  Lc  freemaster_serial.o [1]
pcm_pCompareFunc        0x1fff5d18     0x4  Data  Lc  freemaster_rec.o [1]
pcm_pOwnRecBuffer       0x1fff5d1c  0x7d00  Data  Lc  freemaster_rec.o [1]
pcm_pRecVarAddr         0x1fff5cd8    0x20  Data  Gb  freemaster_rec.o [1]
pcm_pRecVarSize         0x1fff5cf8     0x8  Data  Gb  freemaster_rec.o [1]
pcm_pScopeVarAddr       0x1fffda1c    0x20  Data  Lc  freemaster_scope.o [1]
pcm_pScopeVarSize       0x1fffda3c     0x8  Data  Lc  freemaster_scope.o [1]
pcm_uTrgThreshold       0x1fff5d10     0x4  Data  Lc  freemaster_rec.o [1]
pcm_wRecBuffStartIx     0x200091d8     0x2  Data  Gb  freemaster_rec.o [1]
pcm_wRecFlags           0x1fff5d00     0x4  Data  Gb  freemaster_rec.o [1]
pcm_wRecPostTrigger     0x200091d0     0x2  Data  Gb  freemaster_rec.o [1]
pcm_wRecTimeDiv         0x200091d2     0x2  Data  Gb  freemaster_rec.o [1]
pcm_wRecTimeDivCtr      0x200091d4     0x2  Data  Gb  freemaster_rec.o [1]
pcm_wRecTotalSmps       0x200091ce     0x2  Data  Gb  freemaster_rec.o [1]
pcm_wStoprecCountDown   0x200091d6     0x2  Data  Gb  freemaster_rec.o [1]
pcm_wTsaBuffSize        0x200091da     0x2  Data  Lc  freemaster_tsa.o [1]
pend_params_saving      0x200091ec     0x1  Data  Lc  App_logger.o [1]
pows                    0x000098e8    0x48  Data  Lc  xdtento.o [5]
pr_arr                  0x1fffdccc  0x1f40  Data  Gb  MonitorVT100.o [1]
print_bpb               0x00025075   0x246  Code  Lc  sh_di.o [3]
process_mass_storage_command
                        0x0001cc69   0x100  Code  Gb  usb_msc.o [3]
ptrns_arr               0x20001080  0x7a00  Data  Lc  U3HB01_WS2812B.o [1]
ram_vector              0x1fff0000   0x400  Data  Gb  vectors.o [3]
rand                    0x0000ef55    0xe0  Code  Gb  rand.o [4]
ref_time                0x1fffdc34     0x4  Data  Gb  Main.o [1]
rot_cbl                 0x1ffffe48    0x14  Data  Gb  U3HB01_main.o [1]
rot_lwev                0x1ffffec4    0x24  Data  Lc  U3HB01_RotationControl.o [1]
rtc_handler             0x20008bac     0x8  Data  Lc  krtc.o [3]
rx_buff                 0x1fffda8c     0x4  Data  Lc  freemaster_serial.o [1]
rx_counter              0x200091f6     0x1  Data  Lc  freemaster_serial.o [1]
rx_csum                 0x200091f7     0x1  Data  Lc  freemaster_serial.o [1]
s_class_handle          0x1fff08c8     0x4  Data  Lc  usb_class.o [3]
s_composite_config_struct
                        0x20008c04    0x48  Data  Lc  usb_composite.o [3]
s_composite_device_struct
                        0x20008bec    0x18  Data  Lc  usb_composite.o [3]
s_usb_composite_info_struct
                        0x20008c4c     0x8  Data  Lc  usb_composite.o [3]
scrnts                  0x1ffffc6c    0x10  Data  Lc  U3HB01_DRV8305.o [1]
sdcard_handle           0x1fffdc40     0x4  Data  Lc  MFS_man.o [1]
setjmp                  0x0000582d          Code  Gb  setjmp.o [5]
shunt_amp_enabled       0x1ffffc48     0x4  Data  Lc  U3HB01_DRV8305.o [1]
slnd_en                 0x200091fb     0x1  Data  Gb  U3HB01_SolenoidControl.o [1]
slnd_lwev               0x1ffffee8    0x24  Data  Lc  U3HB01_SolenoidControl.o [1]
slnd_pwr                0x1fffff0c     0x4  Data  Gb  U3HB01_SolenoidControl.o [1]
sns_ia_calibr           0x1ffffe60     0x4  Data  Gb  U3HB01_main.o [1]
sns_ib_calibr           0x1ffffe64     0x4  Data  Gb  U3HB01_main.o [1]
sns_ic_calibr           0x1ffffe68     0x4  Data  Gb  U3HB01_main.o [1]
soc_get_usb_base_address
                        0x00018689    0x14  Code  Gb  adapter_mqx.o [3]
soc_get_usb_vector_number
                        0x000186a5    0x14  Code  Gb  adapter_mqx.o [3]
speed                   0x1ffffda4     0x4  Data  Lc  U3HB01_Hall_sensor.o [1]
spi_cbl                 0x1fffdb08    0x84  Data  Gb  K66BLEZ1_SPI.o [1]
spi_errors              0x1fffdaf0    0x18  Data  Gb  K66BLEZ1_SPI.o [1]
spi_mods                0x0002d994    0x30  Data  Gb  K66BLEZ1_SPI.o [1]
srand                   0x000116d5    0x20  Code  Gb  srand.o [4]
strchr                  0x0000f469          Code  Gb  strchr.o [6]
strlen                  0x0000e1e5          Code  Gb  strlen.o [6]
strncmp                 0x00003bf5    0x2c  Code  Gb  strncmp.o [4]
strtol                  0x0000f329     0x6  Code  Gb  strtol.o [4]
sync_ctrl_trans_tbl     0x0002f708    0x30  Data  Gb  U3HB01_Hall_BLDC.o [1]
sysb_sem                0x1fffff10    0x1c  Data  Gb  U3HB01_SPISysBus.o [1]
systick_devif           0x00030008    0x18  Data  Gb  hwtimer_systick.o [3]
systick_get_vector      0x0002ad31     0x4  Code  Gb  hwtimer_kinetis.o [3]
systimer                0x1fff22c8    0x40  Data  Gb  init_bsp.o [3]
tlsf_clz                0x00000469          Code  Gb  support.o [3]
tolower                 0x00014bbd    0x14  Code  Gb  tolower.o [4]
toolchain_startup       0x000004d5     0x4  Code  Gb  comp.o [3]
toupper                 0x0000e189    0x18  Code  Gb  toupper.o [4]
tx_buff                 0x1fffda88     0x4  Data  Lc  freemaster_serial.o [1]
tx_counter              0x200091f5     0x1  Data  Lc  freemaster_serial.o [1]
upper_hex_string        0x0000ded8    0x14  Data  Lc  io_dopr.o [3]
usb_class_object        0x1fff08a8    0x20  Data  Lc  usb_class.o [3]
usb_composite_info      0x1fff0640     0x8  Data  Lc  usb_device_descriptor.o [1]
usb_dci_usbhs_alloc_xd  0x0002bea5    0x44  Code  Gb  ehci_dev_main.o [3]
usb_dci_usbhs_cancel_transfer
                        0x0002bab7   0x196  Code  Gb  ehci_dev_main.o [3]
usb_dci_usbhs_deinit_endpoint
                        0x0002ba47    0x5e  Code  Gb  ehci_dev_main.o [3]
usb_dci_usbhs_get_endpoint_status
                        0x0002bd63    0x2a  Code  Gb  ehci_dev_main.o [3]
usb_dci_usbhs_get_setup_data
                        0x0002b91b    0x56  Code  Gb  ehci_dev_main.o [3]
usb_dci_usbhs_get_status
                        0x0002be51    0x54  Code  Gb  ehci_dev_main.o [3]
usb_dci_usbhs_get_transfer_status
                        0x0002baa5    0x12  Code  Gb  ehci_dev_main.o [3]
usb_dci_usbhs_init      0x0002afb1    0x9e  Code  Gb  ehci_dev_main.o [3]
usb_dci_usbhs_init_endpoint
                        0x0002b971    0xd6  Code  Gb  ehci_dev_main.o [3]
usb_dci_usbhs_preinit   0x0002af09    0xa8  Code  Gb  ehci_dev_main.o [3]
usb_dci_usbhs_recv_data
                        0x0002b2d1     0x2  Code  Gb  ehci_dev_main.o [3]
usb_dci_usbhs_send_data
                        0x0002b2cf     0x2  Code  Gb  ehci_dev_main.o [3]
usb_dci_usbhs_set_address
                        0x0002b905    0x16  Code  Gb  ehci_dev_main.o [3]
usb_dci_usbhs_set_endpoint_status
                        0x0002bd8d    0x84  Code  Gb  ehci_dev_main.o [3]
usb_dci_usbhs_set_status
                        0x0002be11    0x40  Code  Gb  ehci_dev_main.o [3]
usb_dci_usbhs_shutdown  0x0002bc4d    0x4c  Code  Gb  ehci_dev_main.o [3]
usb_dci_usbhs_stall_endpoint
                        0x0002bc9d    0x74  Code  Gb  ehci_dev_main.o [3]
usb_dci_usbhs_unstall_endpoint
                        0x0002bd11    0x52  Code  Gb  ehci_dev_main.o [3]
usb_dec_class           0x1fff0628    0x18  Data  Lc  usb_device_descriptor.o [1]
usb_device_cancel_transfer
                        0x0001c0eb    0x3c  Code  Gb  usb_dev.o [3]
usb_device_deinit_endpoint
                        0x0001bf3b    0x34  Code  Gb  usb_dev.o [3]
usb_device_get_status   0x0001bc67    0x4c  Code  Gb  usb_dev.o [3]
usb_device_init         0x0001bceb   0x110  Code  Gb  usb_dev.o [3]
usb_device_init_endpoint
                        0x0001be29    0x40  Code  Gb  usb_dev.o [3]
usb_device_postinit     0x0001bdfb    0x1e  Code  Gb  usb_dev.o [3]
usb_device_recv_data    0x0001bf6f    0x7c  Code  Gb  usb_dev.o [3]
usb_device_register_application_notify
                        0x0001c0c1     0xe  Code  Gb  usb_dev.o [3]
usb_device_register_desc_request_notify
                        0x0001c0dd     0xe  Code  Gb  usb_dev.o [3]
usb_device_register_service
                        0x0001be69    0xd2  Code  Gb  usb_dev.o [3]
usb_device_register_vendor_class_request_notify
                        0x0001c0cf     0xe  Code  Gb  usb_dev.o [3]
usb_device_reset        0x0001c127    0x12  Code  Gb  usb_dev.o [3]
usb_device_send_data    0x0001bfeb    0x7c  Code  Gb  usb_dev.o [3]
usb_device_set_address  0x0001bc57    0x10  Code  Gb  usb_dev.o [3]
usb_device_set_status   0x0001bcb3    0x38  Code  Gb  usb_dev.o [3]
usb_device_stall_endpoint
                        0x0001c0a3    0x1e  Code  Gb  usb_dev.o [3]
usb_device_unstall_endpoint
                        0x0001c067    0x3c  Code  Gb  usb_dev.o [3]
usb_lang                0x1fff0858     0xc  Data  Gb  usb_device_descriptor.o [1]
utf8_decode             0x000235bd    0x90  Code  Gb  mfs_unicode.o [3]
utf8_decode_r           0x00023651    0xa8  Code  Gb  mfs_unicode.o [3]
utf8_encode             0x000236f9    0xb0  Code  Gb  mfs_unicode.o [3]
utf8_encode_r           0x000237a9    0xb0  Code  Gb  mfs_unicode.o [3]
vcom1_cbl               0x20008aec    0x60  Data  Gb  USB_virtual_com1.o [1]
vcom2_cbl               0x20008b4c    0x60  Data  Gb  USB_virtual_com2.o [1]
vcom_driver1            0x1fff0498    0x18  Data  Lc  Monitor_usb_drv.o [1]
vcom_driver2            0x1fff04b0    0x18  Data  Lc  Monitor_usb_drv.o [1]
ws2812B_DMA_cfg         0x1fffff38    0x1c  Data  Lc  U3HB01_WS2812B.o [1]
wvar                    0x1fffdb9c    0x98  Data  Gb  Main.o [1]


[1] = D:\Embedded\Projects\Universal3PHalfBridgeController\GitHub\Universal3PHalfBridgeController\K66_Firmware\IAR_proj\OUT\Debug\Obj
[2] = command line
[3] = MQX_LIBRARY_O3.a
[4] = dl7M_tlf.a
[5] = m7M_tls.a
[6] = rt7M_tl.a

  179 832 bytes of readonly  code memory
   17 692 bytes of readonly  data memory
  102 912 bytes of readwrite data memory

Errors: none
Warnings: none
